
./kernel.armc-013.rpi2:     file format elf32-littlearm


Disassembly of section .text:

00008000 <_start>:
_start():
    8000:	e59ff018 	ldr	pc, [pc, #24]	; 8020 <_reset_h>
    8004:	e59ff018 	ldr	pc, [pc, #24]	; 8024 <_undefined_instruction_vector_h>
    8008:	e59ff018 	ldr	pc, [pc, #24]	; 8028 <_software_interrupt_vector_h>
    800c:	e59ff018 	ldr	pc, [pc, #24]	; 802c <_prefetch_abort_vector_h>
    8010:	e59ff018 	ldr	pc, [pc, #24]	; 8030 <_data_abort_vector_h>
    8014:	e59ff018 	ldr	pc, [pc, #24]	; 8034 <_unused_handler_h>
    8018:	e59ff018 	ldr	pc, [pc, #24]	; 8038 <_interrupt_vector_h>
    801c:	e59ff018 	ldr	pc, [pc, #24]	; 803c <_fast_interrupt_vector_h>

00008020 <_reset_h>:
_reset_h():
    8020:	00008040 	andeq	r8, r0, r0, asr #32

00008024 <_undefined_instruction_vector_h>:
_undefined_instruction_vector_h():
    8024:	00008618 	andeq	r8, r0, r8, lsl r6

00008028 <_software_interrupt_vector_h>:
_software_interrupt_vector_h():
    8028:	00008624 	andeq	r8, r0, r4, lsr #12

0000802c <_prefetch_abort_vector_h>:
_prefetch_abort_vector_h():
    802c:	00008630 	andeq	r8, r0, r0, lsr r6

00008030 <_data_abort_vector_h>:
_data_abort_vector_h():
    8030:	00008648 	andeq	r8, r0, r8, asr #12

00008034 <_unused_handler_h>:
_unused_handler_h():
    8034:	00008040 	andeq	r8, r0, r0, asr #32

00008038 <_interrupt_vector_h>:
_interrupt_vector_h():
    8038:	00008660 	andeq	r8, r0, r0, ror #12

0000803c <_fast_interrupt_vector_h>:
_fast_interrupt_vector_h():
    803c:	000086e0 	andeq	r8, r0, r0, ror #13

00008040 <_reset_>:
_reset_():
    8040:	e3a00902 	mov	r0, #32768	; 0x8000
    8044:	e3a01000 	mov	r1, #0
    8048:	e8b003fc 	ldm	r0!, {r2, r3, r4, r5, r6, r7, r8, r9}
    804c:	e8a103fc 	stmia	r1!, {r2, r3, r4, r5, r6, r7, r8, r9}
    8050:	e8b003fc 	ldm	r0!, {r2, r3, r4, r5, r6, r7, r8, r9}
    8054:	e8a103fc 	stmia	r1!, {r2, r3, r4, r5, r6, r7, r8, r9}
    8058:	e3a000d2 	mov	r0, #210	; 0xd2
    805c:	e121f000 	msr	CPSR_c, r0
    8060:	e3a0d63f 	mov	sp, #66060288	; 0x3f00000
    8064:	e3a000d3 	mov	r0, #211	; 0xd3
    8068:	e121f000 	msr	CPSR_c, r0
    806c:	e3a0d902 	mov	sp, #32768	; 0x8000
    8070:	eb000023 	bl	8104 <_cstartup>

00008074 <_inf_loop>:
_inf_loop():
    8074:	eafffffe 	b	8074 <_inf_loop>

00008078 <_get_stack_pointer>:
_get_stack_pointer():
    8078:	e58dd000 	str	sp, [sp]
    807c:	e59d0000 	ldr	r0, [sp]
    8080:	e1a0f00e 	mov	pc, lr

00008084 <_enable_interrupts>:
_enable_interrupts():
    8084:	e10f0000 	mrs	r0, CPSR
    8088:	e3c00080 	bic	r0, r0, #128	; 0x80
    808c:	e121f000 	msr	CPSR_c, r0
    8090:	e1a0f00e 	mov	pc, lr

00008094 <kernel_main>:
kernel_main():
/mnt/d/uni/2019-2020/CTH/Digital_project_laboratory/mcu/part-4/armc-013/armc-013.c:27

extern void _enable_interrupts(void);

/** Main function - we'll never return from here */
void kernel_main( unsigned int r0, unsigned int r1, unsigned int atags )
{
    8094:	e92d4800 	push	{fp, lr}
    8098:	e28db004 	add	fp, sp, #4
    809c:	e24dd010 	sub	sp, sp, #16
    80a0:	e50b0008 	str	r0, [fp, #-8]
    80a4:	e50b100c 	str	r1, [fp, #-12]
    80a8:	e50b2010 	str	r2, [fp, #-16]
/mnt/d/uni/2019-2020/CTH/Digital_project_laboratory/mcu/part-4/armc-013/armc-013.c:30
    /* Write 1 to the LED init nibble in the Function Select GPIO
       peripheral register to enable LED pin as an output */
    RPI_GetGpio()->LED_GPFSEL |= ( 1 << LED_GPFBIT);
    80ac:	eb00013b 	bl	85a0 <RPI_GetGpio>
    80b0:	e1a03000 	mov	r3, r0
    80b4:	e5932010 	ldr	r2, [r3, #16]
    80b8:	e3822602 	orr	r2, r2, #2097152	; 0x200000
    80bc:	e5832010 	str	r2, [r3, #16]
/mnt/d/uni/2019-2020/CTH/Digital_project_laboratory/mcu/part-4/armc-013/armc-013.c:33

    /* Enable the timer interrupt IRQ */
    RPI_GetIrqController()->Enable_Basic_IRQs = RPI_BASIC_ARM_TIMER_IRQ;
    80c0:	eb000145 	bl	85dc <RPI_GetIrqController>
    80c4:	e1a02000 	mov	r2, r0
    80c8:	e3a03001 	mov	r3, #1
    80cc:	e5823018 	str	r3, [r2, #24]
/mnt/d/uni/2019-2020/CTH/Digital_project_laboratory/mcu/part-4/armc-013/armc-013.c:37

    /* Setup the system timer interrupt */
    /* Timer frequency = Clk/256 * 0x400 */
    RPI_GetArmTimer()->Load = 0x400;
    80d0:	eb000123 	bl	8564 <RPI_GetArmTimer>
    80d4:	e1a02000 	mov	r2, r0
    80d8:	e3a03b01 	mov	r3, #1024	; 0x400
    80dc:	e5823000 	str	r3, [r2]
/mnt/d/uni/2019-2020/CTH/Digital_project_laboratory/mcu/part-4/armc-013/armc-013.c:40

    /* Setup the ARM Timer */
    RPI_GetArmTimer()->Control =
    80e0:	eb00011f 	bl	8564 <RPI_GetArmTimer>
    80e4:	e1a02000 	mov	r2, r0
    80e8:	e3a030aa 	mov	r3, #170	; 0xaa
    80ec:	e5823008 	str	r3, [r2, #8]
/mnt/d/uni/2019-2020/CTH/Digital_project_laboratory/mcu/part-4/armc-013/armc-013.c:47
            RPI_ARMTIMER_CTRL_ENABLE |
            RPI_ARMTIMER_CTRL_INT_ENABLE |
            RPI_ARMTIMER_CTRL_PRESCALE_256;

    /* Enable interrupts! */
    _enable_interrupts();
    80f0:	ebffffe3 	bl	8084 <_enable_interrupts>
/mnt/d/uni/2019-2020/CTH/Digital_project_laboratory/mcu/part-4/armc-013/armc-013.c:54
    /* Never exit as there is no OS to exit to! */
    /*while(1)
    {

    }*/
    __asm("wfi");
    80f4:	e320f003 	wfi
/mnt/d/uni/2019-2020/CTH/Digital_project_laboratory/mcu/part-4/armc-013/armc-013.c:55
}
    80f8:	e320f000 	nop	{0}
    80fc:	e24bd004 	sub	sp, fp, #4
    8100:	e8bd8800 	pop	{fp, pc}

00008104 <_cstartup>:
_cstartup():
/mnt/d/uni/2019-2020/CTH/Digital_project_laboratory/mcu/part-4/armc-013/armc-013-cstartup.c:17
extern int __bss_end__;

extern void kernel_main( unsigned int r0, unsigned int r1, unsigned int atags );

void _cstartup( unsigned int r0, unsigned int r1, unsigned int r2 )
{
    8104:	e92d4800 	push	{fp, lr}
    8108:	e28db004 	add	fp, sp, #4
    810c:	e24dd018 	sub	sp, sp, #24
    8110:	e50b0010 	str	r0, [fp, #-16]
    8114:	e50b1014 	str	r1, [fp, #-20]	; 0xffffffec
    8118:	e50b2018 	str	r2, [fp, #-24]	; 0xffffffe8
/mnt/d/uni/2019-2020/CTH/Digital_project_laboratory/mcu/part-4/armc-013/armc-013-cstartup.c:18
    int* bss = &__bss_start__;
    811c:	e30938f8 	movw	r3, #39160	; 0x98f8
    8120:	e3403001 	movt	r3, #1
    8124:	e50b3008 	str	r3, [fp, #-8]
/mnt/d/uni/2019-2020/CTH/Digital_project_laboratory/mcu/part-4/armc-013/armc-013-cstartup.c:19
    int* bss_end = &__bss_end__;
    8128:	e3093960 	movw	r3, #39264	; 0x9960
    812c:	e3403001 	movt	r3, #1
    8130:	e50b300c 	str	r3, [fp, #-12]
/mnt/d/uni/2019-2020/CTH/Digital_project_laboratory/mcu/part-4/armc-013/armc-013-cstartup.c:30
            BSS section

        See https://sourceware.org/newlib/libc.html#Stubs for further
            information on the c-library stubs
    */
    while( bss < bss_end )
    8134:	ea000004 	b	814c <_cstartup+0x48>
/mnt/d/uni/2019-2020/CTH/Digital_project_laboratory/mcu/part-4/armc-013/armc-013-cstartup.c:31
        *bss++ = 0;
    8138:	e51b3008 	ldr	r3, [fp, #-8]
    813c:	e2832004 	add	r2, r3, #4
    8140:	e50b2008 	str	r2, [fp, #-8]
    8144:	e3a02000 	mov	r2, #0
    8148:	e5832000 	str	r2, [r3]
/mnt/d/uni/2019-2020/CTH/Digital_project_laboratory/mcu/part-4/armc-013/armc-013-cstartup.c:30
    while( bss < bss_end )
    814c:	e51b2008 	ldr	r2, [fp, #-8]
    8150:	e51b300c 	ldr	r3, [fp, #-12]
    8154:	e1520003 	cmp	r2, r3
    8158:	3afffff6 	bcc	8138 <_cstartup+0x34>
/mnt/d/uni/2019-2020/CTH/Digital_project_laboratory/mcu/part-4/armc-013/armc-013-cstartup.c:34

    /* We should never return from main ... */
    kernel_main( r0, r1, r2 );
    815c:	e51b2018 	ldr	r2, [fp, #-24]	; 0xffffffe8
    8160:	e51b1014 	ldr	r1, [fp, #-20]	; 0xffffffec
    8164:	e51b0010 	ldr	r0, [fp, #-16]
    8168:	ebffffc9 	bl	8094 <kernel_main>
/mnt/d/uni/2019-2020/CTH/Digital_project_laboratory/mcu/part-4/armc-013/armc-013-cstartup.c:37 (discriminator 1)

    /* ... but if we do, safely trap here */
    while(1)
    816c:	eafffffe 	b	816c <_cstartup+0x68>

00008170 <_exit>:
_exit():
/mnt/d/uni/2019-2020/CTH/Digital_project_laboratory/mcu/part-4/armc-013/armc-013-cstubs.c:57


/* Never return from _exit as there's no OS to exit to, so instead we trap
   here */
void _exit( int status )
{
    8170:	e52db004 	push	{fp}		; (str fp, [sp, #-4]!)
    8174:	e28db000 	add	fp, sp, #0
    8178:	e24dd00c 	sub	sp, sp, #12
    817c:	e50b0008 	str	r0, [fp, #-8]
/mnt/d/uni/2019-2020/CTH/Digital_project_laboratory/mcu/part-4/armc-013/armc-013-cstubs.c:61 (discriminator 1)
    /* Stop the compiler complaining about unused variables by "using" it */
    (void)status;

    while(1)
    8180:	eafffffe 	b	8180 <_exit+0x10>

00008184 <close>:
close():
/mnt/d/uni/2019-2020/CTH/Digital_project_laboratory/mcu/part-4/armc-013/armc-013-cstubs.c:71


/* There's currently no implementation of a file system because there's no
   file system! */
int close( int file )
{
    8184:	e52db004 	push	{fp}		; (str fp, [sp, #-4]!)
    8188:	e28db000 	add	fp, sp, #0
    818c:	e24dd00c 	sub	sp, sp, #12
    8190:	e50b0008 	str	r0, [fp, #-8]
/mnt/d/uni/2019-2020/CTH/Digital_project_laboratory/mcu/part-4/armc-013/armc-013-cstubs.c:72
    return -1;
    8194:	e3e03000 	mvn	r3, #0
/mnt/d/uni/2019-2020/CTH/Digital_project_laboratory/mcu/part-4/armc-013/armc-013-cstubs.c:73
}
    8198:	e1a00003 	mov	r0, r3
    819c:	e28bd000 	add	sp, fp, #0
    81a0:	e49db004 	pop	{fp}		; (ldr fp, [sp], #4)
    81a4:	e12fff1e 	bx	lr

000081a8 <execve>:
execve():
/mnt/d/uni/2019-2020/CTH/Digital_project_laboratory/mcu/part-4/armc-013/armc-013-cstubs.c:79


/* Transfer control to a new process. Minimal implementation (for a system
   without processes): */
int execve( char *name, char **argv, char **env )
{
    81a8:	e52db004 	push	{fp}		; (str fp, [sp, #-4]!)
    81ac:	e28db000 	add	fp, sp, #0
    81b0:	e24dd014 	sub	sp, sp, #20
    81b4:	e50b0008 	str	r0, [fp, #-8]
    81b8:	e50b100c 	str	r1, [fp, #-12]
    81bc:	e50b2010 	str	r2, [fp, #-16]
/mnt/d/uni/2019-2020/CTH/Digital_project_laboratory/mcu/part-4/armc-013/armc-013-cstubs.c:80
    errno = ENOMEM;
    81c0:	e3093938 	movw	r3, #39224	; 0x9938
    81c4:	e3403001 	movt	r3, #1
    81c8:	e3a0200c 	mov	r2, #12
    81cc:	e5832000 	str	r2, [r3]
/mnt/d/uni/2019-2020/CTH/Digital_project_laboratory/mcu/part-4/armc-013/armc-013-cstubs.c:81
    return -1;
    81d0:	e3e03000 	mvn	r3, #0
/mnt/d/uni/2019-2020/CTH/Digital_project_laboratory/mcu/part-4/armc-013/armc-013-cstubs.c:82
}
    81d4:	e1a00003 	mov	r0, r3
    81d8:	e28bd000 	add	sp, fp, #0
    81dc:	e49db004 	pop	{fp}		; (ldr fp, [sp], #4)
    81e0:	e12fff1e 	bx	lr

000081e4 <fork>:
fork():
/mnt/d/uni/2019-2020/CTH/Digital_project_laboratory/mcu/part-4/armc-013/armc-013-cstubs.c:88


/* Create a new process. Minimal implementation (for a system without
   processes): */
int fork( void )
{
    81e4:	e52db004 	push	{fp}		; (str fp, [sp, #-4]!)
    81e8:	e28db000 	add	fp, sp, #0
/mnt/d/uni/2019-2020/CTH/Digital_project_laboratory/mcu/part-4/armc-013/armc-013-cstubs.c:89
    errno = EAGAIN;
    81ec:	e3093938 	movw	r3, #39224	; 0x9938
    81f0:	e3403001 	movt	r3, #1
    81f4:	e3a0200b 	mov	r2, #11
    81f8:	e5832000 	str	r2, [r3]
/mnt/d/uni/2019-2020/CTH/Digital_project_laboratory/mcu/part-4/armc-013/armc-013-cstubs.c:90
    return -1;
    81fc:	e3e03000 	mvn	r3, #0
/mnt/d/uni/2019-2020/CTH/Digital_project_laboratory/mcu/part-4/armc-013/armc-013-cstubs.c:91
}
    8200:	e1a00003 	mov	r0, r3
    8204:	e28bd000 	add	sp, fp, #0
    8208:	e49db004 	pop	{fp}		; (ldr fp, [sp], #4)
    820c:	e12fff1e 	bx	lr

00008210 <fstat>:
fstat():
/mnt/d/uni/2019-2020/CTH/Digital_project_laboratory/mcu/part-4/armc-013/armc-013-cstubs.c:99
/* Status of an open file. For consistency with other minimal implementations
   in these examples, all files are regarded as character special devices. The
   sys/stat.h header file required is distributed in the include subdirectory
   for this C library. */
int fstat( int file, struct stat *st )
{
    8210:	e52db004 	push	{fp}		; (str fp, [sp, #-4]!)
    8214:	e28db000 	add	fp, sp, #0
    8218:	e24dd00c 	sub	sp, sp, #12
    821c:	e50b0008 	str	r0, [fp, #-8]
    8220:	e50b100c 	str	r1, [fp, #-12]
/mnt/d/uni/2019-2020/CTH/Digital_project_laboratory/mcu/part-4/armc-013/armc-013-cstubs.c:100
    st->st_mode = S_IFCHR;
    8224:	e51b300c 	ldr	r3, [fp, #-12]
    8228:	e3a02a02 	mov	r2, #8192	; 0x2000
    822c:	e5832004 	str	r2, [r3, #4]
/mnt/d/uni/2019-2020/CTH/Digital_project_laboratory/mcu/part-4/armc-013/armc-013-cstubs.c:101
    return 0;
    8230:	e3a03000 	mov	r3, #0
/mnt/d/uni/2019-2020/CTH/Digital_project_laboratory/mcu/part-4/armc-013/armc-013-cstubs.c:102
}
    8234:	e1a00003 	mov	r0, r3
    8238:	e28bd000 	add	sp, fp, #0
    823c:	e49db004 	pop	{fp}		; (ldr fp, [sp], #4)
    8240:	e12fff1e 	bx	lr

00008244 <getpid>:
getpid():
/mnt/d/uni/2019-2020/CTH/Digital_project_laboratory/mcu/part-4/armc-013/armc-013-cstubs.c:109

/* Process-ID; this is sometimes used to generate strings unlikely to conflict
   with other processes. Minimal implementation, for a system without
   processes: */
int getpid( void )
{
    8244:	e52db004 	push	{fp}		; (str fp, [sp, #-4]!)
    8248:	e28db000 	add	fp, sp, #0
/mnt/d/uni/2019-2020/CTH/Digital_project_laboratory/mcu/part-4/armc-013/armc-013-cstubs.c:110
    return 1;
    824c:	e3a03001 	mov	r3, #1
/mnt/d/uni/2019-2020/CTH/Digital_project_laboratory/mcu/part-4/armc-013/armc-013-cstubs.c:111
}
    8250:	e1a00003 	mov	r0, r3
    8254:	e28bd000 	add	sp, fp, #0
    8258:	e49db004 	pop	{fp}		; (ldr fp, [sp], #4)
    825c:	e12fff1e 	bx	lr

00008260 <isatty>:
isatty():
/mnt/d/uni/2019-2020/CTH/Digital_project_laboratory/mcu/part-4/armc-013/armc-013-cstubs.c:118

/* Query whether output stream is a terminal. For consistency with the other
   minimal implementations, which only support output to stdout, this minimal
   implementation is suggested: */
int isatty(int file)
{
    8260:	e52db004 	push	{fp}		; (str fp, [sp, #-4]!)
    8264:	e28db000 	add	fp, sp, #0
    8268:	e24dd00c 	sub	sp, sp, #12
    826c:	e50b0008 	str	r0, [fp, #-8]
/mnt/d/uni/2019-2020/CTH/Digital_project_laboratory/mcu/part-4/armc-013/armc-013-cstubs.c:119
    return 1;
    8270:	e3a03001 	mov	r3, #1
/mnt/d/uni/2019-2020/CTH/Digital_project_laboratory/mcu/part-4/armc-013/armc-013-cstubs.c:120
}
    8274:	e1a00003 	mov	r0, r3
    8278:	e28bd000 	add	sp, fp, #0
    827c:	e49db004 	pop	{fp}		; (ldr fp, [sp], #4)
    8280:	e12fff1e 	bx	lr

00008284 <kill>:
kill():
/mnt/d/uni/2019-2020/CTH/Digital_project_laboratory/mcu/part-4/armc-013/armc-013-cstubs.c:125


/* Send a signal. Minimal implementation: */
int kill( int pid, int sig )
{
    8284:	e52db004 	push	{fp}		; (str fp, [sp, #-4]!)
    8288:	e28db000 	add	fp, sp, #0
    828c:	e24dd00c 	sub	sp, sp, #12
    8290:	e50b0008 	str	r0, [fp, #-8]
    8294:	e50b100c 	str	r1, [fp, #-12]
/mnt/d/uni/2019-2020/CTH/Digital_project_laboratory/mcu/part-4/armc-013/armc-013-cstubs.c:126
    errno = EINVAL;
    8298:	e3093938 	movw	r3, #39224	; 0x9938
    829c:	e3403001 	movt	r3, #1
    82a0:	e3a02016 	mov	r2, #22
    82a4:	e5832000 	str	r2, [r3]
/mnt/d/uni/2019-2020/CTH/Digital_project_laboratory/mcu/part-4/armc-013/armc-013-cstubs.c:127
    return -1;
    82a8:	e3e03000 	mvn	r3, #0
/mnt/d/uni/2019-2020/CTH/Digital_project_laboratory/mcu/part-4/armc-013/armc-013-cstubs.c:128
}
    82ac:	e1a00003 	mov	r0, r3
    82b0:	e28bd000 	add	sp, fp, #0
    82b4:	e49db004 	pop	{fp}		; (ldr fp, [sp], #4)
    82b8:	e12fff1e 	bx	lr

000082bc <link>:
link():
/mnt/d/uni/2019-2020/CTH/Digital_project_laboratory/mcu/part-4/armc-013/armc-013-cstubs.c:133


/* Establish a new name for an existing file. Minimal implementation: */
int link( char *old, char *new )
{
    82bc:	e52db004 	push	{fp}		; (str fp, [sp, #-4]!)
    82c0:	e28db000 	add	fp, sp, #0
    82c4:	e24dd00c 	sub	sp, sp, #12
    82c8:	e50b0008 	str	r0, [fp, #-8]
    82cc:	e50b100c 	str	r1, [fp, #-12]
/mnt/d/uni/2019-2020/CTH/Digital_project_laboratory/mcu/part-4/armc-013/armc-013-cstubs.c:134
    errno = EMLINK;
    82d0:	e3093938 	movw	r3, #39224	; 0x9938
    82d4:	e3403001 	movt	r3, #1
    82d8:	e3a0201f 	mov	r2, #31
    82dc:	e5832000 	str	r2, [r3]
/mnt/d/uni/2019-2020/CTH/Digital_project_laboratory/mcu/part-4/armc-013/armc-013-cstubs.c:135
    return -1;
    82e0:	e3e03000 	mvn	r3, #0
/mnt/d/uni/2019-2020/CTH/Digital_project_laboratory/mcu/part-4/armc-013/armc-013-cstubs.c:136
}
    82e4:	e1a00003 	mov	r0, r3
    82e8:	e28bd000 	add	sp, fp, #0
    82ec:	e49db004 	pop	{fp}		; (ldr fp, [sp], #4)
    82f0:	e12fff1e 	bx	lr

000082f4 <lseek>:
lseek():
/mnt/d/uni/2019-2020/CTH/Digital_project_laboratory/mcu/part-4/armc-013/armc-013-cstubs.c:141


/* Set position in a file. Minimal implementation: */
int lseek(int file, int ptr, int dir)
{
    82f4:	e52db004 	push	{fp}		; (str fp, [sp, #-4]!)
    82f8:	e28db000 	add	fp, sp, #0
    82fc:	e24dd014 	sub	sp, sp, #20
    8300:	e50b0008 	str	r0, [fp, #-8]
    8304:	e50b100c 	str	r1, [fp, #-12]
    8308:	e50b2010 	str	r2, [fp, #-16]
/mnt/d/uni/2019-2020/CTH/Digital_project_laboratory/mcu/part-4/armc-013/armc-013-cstubs.c:142
    return 0;
    830c:	e3a03000 	mov	r3, #0
/mnt/d/uni/2019-2020/CTH/Digital_project_laboratory/mcu/part-4/armc-013/armc-013-cstubs.c:143
}
    8310:	e1a00003 	mov	r0, r3
    8314:	e28bd000 	add	sp, fp, #0
    8318:	e49db004 	pop	{fp}		; (ldr fp, [sp], #4)
    831c:	e12fff1e 	bx	lr

00008320 <open>:
open():
/mnt/d/uni/2019-2020/CTH/Digital_project_laboratory/mcu/part-4/armc-013/armc-013-cstubs.c:148


/* Open a file. Minimal implementation: */
int open( const char *name, int flags, int mode )
{
    8320:	e52db004 	push	{fp}		; (str fp, [sp, #-4]!)
    8324:	e28db000 	add	fp, sp, #0
    8328:	e24dd014 	sub	sp, sp, #20
    832c:	e50b0008 	str	r0, [fp, #-8]
    8330:	e50b100c 	str	r1, [fp, #-12]
    8334:	e50b2010 	str	r2, [fp, #-16]
/mnt/d/uni/2019-2020/CTH/Digital_project_laboratory/mcu/part-4/armc-013/armc-013-cstubs.c:149
    return -1;
    8338:	e3e03000 	mvn	r3, #0
/mnt/d/uni/2019-2020/CTH/Digital_project_laboratory/mcu/part-4/armc-013/armc-013-cstubs.c:150
}
    833c:	e1a00003 	mov	r0, r3
    8340:	e28bd000 	add	sp, fp, #0
    8344:	e49db004 	pop	{fp}		; (ldr fp, [sp], #4)
    8348:	e12fff1e 	bx	lr

0000834c <read>:
read():
/mnt/d/uni/2019-2020/CTH/Digital_project_laboratory/mcu/part-4/armc-013/armc-013-cstubs.c:155


/* Read from a file. Minimal implementation: */
int read( int file, char *ptr, int len )
{
    834c:	e52db004 	push	{fp}		; (str fp, [sp, #-4]!)
    8350:	e28db000 	add	fp, sp, #0
    8354:	e24dd014 	sub	sp, sp, #20
    8358:	e50b0008 	str	r0, [fp, #-8]
    835c:	e50b100c 	str	r1, [fp, #-12]
    8360:	e50b2010 	str	r2, [fp, #-16]
/mnt/d/uni/2019-2020/CTH/Digital_project_laboratory/mcu/part-4/armc-013/armc-013-cstubs.c:156
    return 0;
    8364:	e3a03000 	mov	r3, #0
/mnt/d/uni/2019-2020/CTH/Digital_project_laboratory/mcu/part-4/armc-013/armc-013-cstubs.c:157
}
    8368:	e1a00003 	mov	r0, r3
    836c:	e28bd000 	add	sp, fp, #0
    8370:	e49db004 	pop	{fp}		; (ldr fp, [sp], #4)
    8374:	e12fff1e 	bx	lr

00008378 <_sbrk>:
_sbrk():
/mnt/d/uni/2019-2020/CTH/Digital_project_laboratory/mcu/part-4/armc-013/armc-013-cstubs.c:165
/* Increase program data space. As malloc and related functions depend on this,
   it is useful to have a working implementation. The following suffices for a
   standalone system; it exploits the symbol _end automatically defined by the
   GNU linker. */
caddr_t _sbrk( int incr )
{
    8378:	e92d4810 	push	{r4, fp, lr}
    837c:	e28db008 	add	fp, sp, #8
    8380:	e24dd014 	sub	sp, sp, #20
    8384:	e50b0018 	str	r0, [fp, #-24]	; 0xffffffe8
/mnt/d/uni/2019-2020/CTH/Digital_project_laboratory/mcu/part-4/armc-013/armc-013-cstubs.c:170
    extern char _end;
    static char* heap_end;
    char* prev_heap_end;

    if( heap_end == 0 )
    8388:	e30938fc 	movw	r3, #39164	; 0x98fc
    838c:	e3403001 	movt	r3, #1
    8390:	e5933000 	ldr	r3, [r3]
    8394:	e3530000 	cmp	r3, #0
    8398:	1a000004 	bne	83b0 <_sbrk+0x38>
/mnt/d/uni/2019-2020/CTH/Digital_project_laboratory/mcu/part-4/armc-013/armc-013-cstubs.c:171
        heap_end = &_end;
    839c:	e30938fc 	movw	r3, #39164	; 0x98fc
    83a0:	e3403001 	movt	r3, #1
    83a4:	e3092960 	movw	r2, #39264	; 0x9960
    83a8:	e3402001 	movt	r2, #1
    83ac:	e5832000 	str	r2, [r3]
/mnt/d/uni/2019-2020/CTH/Digital_project_laboratory/mcu/part-4/armc-013/armc-013-cstubs.c:173

     prev_heap_end = heap_end;
    83b0:	e30938fc 	movw	r3, #39164	; 0x98fc
    83b4:	e3403001 	movt	r3, #1
    83b8:	e5933000 	ldr	r3, [r3]
    83bc:	e50b3010 	str	r3, [fp, #-16]
/mnt/d/uni/2019-2020/CTH/Digital_project_laboratory/mcu/part-4/armc-013/armc-013-cstubs.c:175

     if( ( heap_end + incr ) > _get_stack_pointer() )
    83c0:	e30938fc 	movw	r3, #39164	; 0x98fc
    83c4:	e3403001 	movt	r3, #1
    83c8:	e5932000 	ldr	r2, [r3]
    83cc:	e51b3018 	ldr	r3, [fp, #-24]	; 0xffffffe8
    83d0:	e0824003 	add	r4, r2, r3
    83d4:	ebffff27 	bl	8078 <_get_stack_pointer>
    83d8:	e1a03000 	mov	r3, r0
    83dc:	e1540003 	cmp	r4, r3
    83e0:	9a000000 	bls	83e8 <_sbrk+0x70>
/mnt/d/uni/2019-2020/CTH/Digital_project_laboratory/mcu/part-4/armc-013/armc-013-cstubs.c:177 (discriminator 1)
     {
        while( 1 ) { /* TRAP HERE! */ }
    83e4:	eafffffe 	b	83e4 <_sbrk+0x6c>
/mnt/d/uni/2019-2020/CTH/Digital_project_laboratory/mcu/part-4/armc-013/armc-013-cstubs.c:180
     }

     heap_end += incr;
    83e8:	e30938fc 	movw	r3, #39164	; 0x98fc
    83ec:	e3403001 	movt	r3, #1
    83f0:	e5932000 	ldr	r2, [r3]
    83f4:	e51b3018 	ldr	r3, [fp, #-24]	; 0xffffffe8
    83f8:	e0822003 	add	r2, r2, r3
    83fc:	e30938fc 	movw	r3, #39164	; 0x98fc
    8400:	e3403001 	movt	r3, #1
    8404:	e5832000 	str	r2, [r3]
/mnt/d/uni/2019-2020/CTH/Digital_project_laboratory/mcu/part-4/armc-013/armc-013-cstubs.c:181
     return (caddr_t)prev_heap_end;
    8408:	e51b3010 	ldr	r3, [fp, #-16]
/mnt/d/uni/2019-2020/CTH/Digital_project_laboratory/mcu/part-4/armc-013/armc-013-cstubs.c:182
}
    840c:	e1a00003 	mov	r0, r3
    8410:	e24bd008 	sub	sp, fp, #8
    8414:	e8bd8810 	pop	{r4, fp, pc}

00008418 <stat>:
stat():
/mnt/d/uni/2019-2020/CTH/Digital_project_laboratory/mcu/part-4/armc-013/armc-013-cstubs.c:187


/* Status of a file (by name). Minimal implementation: */
int stat( const char *file, struct stat *st )
{
    8418:	e52db004 	push	{fp}		; (str fp, [sp, #-4]!)
    841c:	e28db000 	add	fp, sp, #0
    8420:	e24dd00c 	sub	sp, sp, #12
    8424:	e50b0008 	str	r0, [fp, #-8]
    8428:	e50b100c 	str	r1, [fp, #-12]
/mnt/d/uni/2019-2020/CTH/Digital_project_laboratory/mcu/part-4/armc-013/armc-013-cstubs.c:188
    st->st_mode = S_IFCHR;
    842c:	e51b300c 	ldr	r3, [fp, #-12]
    8430:	e3a02a02 	mov	r2, #8192	; 0x2000
    8434:	e5832004 	str	r2, [r3, #4]
/mnt/d/uni/2019-2020/CTH/Digital_project_laboratory/mcu/part-4/armc-013/armc-013-cstubs.c:189
    return 0;
    8438:	e3a03000 	mov	r3, #0
/mnt/d/uni/2019-2020/CTH/Digital_project_laboratory/mcu/part-4/armc-013/armc-013-cstubs.c:190
}
    843c:	e1a00003 	mov	r0, r3
    8440:	e28bd000 	add	sp, fp, #0
    8444:	e49db004 	pop	{fp}		; (ldr fp, [sp], #4)
    8448:	e12fff1e 	bx	lr

0000844c <times>:
times():
/mnt/d/uni/2019-2020/CTH/Digital_project_laboratory/mcu/part-4/armc-013/armc-013-cstubs.c:195


/* Timing information for current process. Minimal implementation: */
clock_t times( struct tms *buf )
{
    844c:	e52db004 	push	{fp}		; (str fp, [sp, #-4]!)
    8450:	e28db000 	add	fp, sp, #0
    8454:	e24dd00c 	sub	sp, sp, #12
    8458:	e50b0008 	str	r0, [fp, #-8]
/mnt/d/uni/2019-2020/CTH/Digital_project_laboratory/mcu/part-4/armc-013/armc-013-cstubs.c:196
    return -1;
    845c:	e3e03000 	mvn	r3, #0
/mnt/d/uni/2019-2020/CTH/Digital_project_laboratory/mcu/part-4/armc-013/armc-013-cstubs.c:197
}
    8460:	e1a00003 	mov	r0, r3
    8464:	e28bd000 	add	sp, fp, #0
    8468:	e49db004 	pop	{fp}		; (ldr fp, [sp], #4)
    846c:	e12fff1e 	bx	lr

00008470 <unlink>:
unlink():
/mnt/d/uni/2019-2020/CTH/Digital_project_laboratory/mcu/part-4/armc-013/armc-013-cstubs.c:202


/* Remove a file's directory entry. Minimal implementation: */
int unlink( char *name )
{
    8470:	e52db004 	push	{fp}		; (str fp, [sp, #-4]!)
    8474:	e28db000 	add	fp, sp, #0
    8478:	e24dd00c 	sub	sp, sp, #12
    847c:	e50b0008 	str	r0, [fp, #-8]
/mnt/d/uni/2019-2020/CTH/Digital_project_laboratory/mcu/part-4/armc-013/armc-013-cstubs.c:203
    errno = ENOENT;
    8480:	e3093938 	movw	r3, #39224	; 0x9938
    8484:	e3403001 	movt	r3, #1
    8488:	e3a02002 	mov	r2, #2
    848c:	e5832000 	str	r2, [r3]
/mnt/d/uni/2019-2020/CTH/Digital_project_laboratory/mcu/part-4/armc-013/armc-013-cstubs.c:204
    return -1;
    8490:	e3e03000 	mvn	r3, #0
/mnt/d/uni/2019-2020/CTH/Digital_project_laboratory/mcu/part-4/armc-013/armc-013-cstubs.c:205
}
    8494:	e1a00003 	mov	r0, r3
    8498:	e28bd000 	add	sp, fp, #0
    849c:	e49db004 	pop	{fp}		; (ldr fp, [sp], #4)
    84a0:	e12fff1e 	bx	lr

000084a4 <wait>:
wait():
/mnt/d/uni/2019-2020/CTH/Digital_project_laboratory/mcu/part-4/armc-013/armc-013-cstubs.c:210


/* Wait for a child process. Minimal implementation: */
int wait( int *status )
{
    84a4:	e52db004 	push	{fp}		; (str fp, [sp, #-4]!)
    84a8:	e28db000 	add	fp, sp, #0
    84ac:	e24dd00c 	sub	sp, sp, #12
    84b0:	e50b0008 	str	r0, [fp, #-8]
/mnt/d/uni/2019-2020/CTH/Digital_project_laboratory/mcu/part-4/armc-013/armc-013-cstubs.c:211
    errno = ECHILD;
    84b4:	e3093938 	movw	r3, #39224	; 0x9938
    84b8:	e3403001 	movt	r3, #1
    84bc:	e3a0200a 	mov	r2, #10
    84c0:	e5832000 	str	r2, [r3]
/mnt/d/uni/2019-2020/CTH/Digital_project_laboratory/mcu/part-4/armc-013/armc-013-cstubs.c:212
    return -1;
    84c4:	e3e03000 	mvn	r3, #0
/mnt/d/uni/2019-2020/CTH/Digital_project_laboratory/mcu/part-4/armc-013/armc-013-cstubs.c:213
}
    84c8:	e1a00003 	mov	r0, r3
    84cc:	e28bd000 	add	sp, fp, #0
    84d0:	e49db004 	pop	{fp}		; (ldr fp, [sp], #4)
    84d4:	e12fff1e 	bx	lr

000084d8 <outbyte>:
outbyte():
/mnt/d/uni/2019-2020/CTH/Digital_project_laboratory/mcu/part-4/armc-013/armc-013-cstubs.c:217


void outbyte( char b )
{
    84d8:	e52db004 	push	{fp}		; (str fp, [sp, #-4]!)
    84dc:	e28db000 	add	fp, sp, #0
    84e0:	e24dd00c 	sub	sp, sp, #12
    84e4:	e1a03000 	mov	r3, r0
    84e8:	e54b3005 	strb	r3, [fp, #-5]
/mnt/d/uni/2019-2020/CTH/Digital_project_laboratory/mcu/part-4/armc-013/armc-013-cstubs.c:219
    (void)b;
}
    84ec:	e320f000 	nop	{0}
    84f0:	e28bd000 	add	sp, fp, #0
    84f4:	e49db004 	pop	{fp}		; (ldr fp, [sp], #4)
    84f8:	e12fff1e 	bx	lr

000084fc <write>:
write():
/mnt/d/uni/2019-2020/CTH/Digital_project_laboratory/mcu/part-4/armc-013/armc-013-cstubs.c:229
   capable of doing this. The following minimal implementation is an
   incomplete example; it relies on a outbyte subroutine (not shown; typically,
   you must write this in assembler from examples provided by your hardware
   manufacturer) to actually perform the output. */
int write( int file, char *ptr, int len )
{
    84fc:	e92d4800 	push	{fp, lr}
    8500:	e28db004 	add	fp, sp, #4
    8504:	e24dd018 	sub	sp, sp, #24
    8508:	e50b0010 	str	r0, [fp, #-16]
    850c:	e50b1014 	str	r1, [fp, #-20]	; 0xffffffec
    8510:	e50b2018 	str	r2, [fp, #-24]	; 0xffffffe8
/mnt/d/uni/2019-2020/CTH/Digital_project_laboratory/mcu/part-4/armc-013/armc-013-cstubs.c:232
    int todo;

    for( todo = 0; todo < len; todo++ )
    8514:	e3a03000 	mov	r3, #0
    8518:	e50b3008 	str	r3, [fp, #-8]
    851c:	ea000008 	b	8544 <write+0x48>
/mnt/d/uni/2019-2020/CTH/Digital_project_laboratory/mcu/part-4/armc-013/armc-013-cstubs.c:233 (discriminator 3)
      outbyte(*ptr++);
    8520:	e51b3014 	ldr	r3, [fp, #-20]	; 0xffffffec
    8524:	e2832001 	add	r2, r3, #1
    8528:	e50b2014 	str	r2, [fp, #-20]	; 0xffffffec
    852c:	e5d33000 	ldrb	r3, [r3]
    8530:	e1a00003 	mov	r0, r3
    8534:	ebffffe7 	bl	84d8 <outbyte>
/mnt/d/uni/2019-2020/CTH/Digital_project_laboratory/mcu/part-4/armc-013/armc-013-cstubs.c:232 (discriminator 3)
    for( todo = 0; todo < len; todo++ )
    8538:	e51b3008 	ldr	r3, [fp, #-8]
    853c:	e2833001 	add	r3, r3, #1
    8540:	e50b3008 	str	r3, [fp, #-8]
/mnt/d/uni/2019-2020/CTH/Digital_project_laboratory/mcu/part-4/armc-013/armc-013-cstubs.c:232 (discriminator 1)
    8544:	e51b2008 	ldr	r2, [fp, #-8]
    8548:	e51b3018 	ldr	r3, [fp, #-24]	; 0xffffffe8
    854c:	e1520003 	cmp	r2, r3
    8550:	bafffff2 	blt	8520 <write+0x24>
/mnt/d/uni/2019-2020/CTH/Digital_project_laboratory/mcu/part-4/armc-013/armc-013-cstubs.c:235

    return len;
    8554:	e51b3018 	ldr	r3, [fp, #-24]	; 0xffffffe8
/mnt/d/uni/2019-2020/CTH/Digital_project_laboratory/mcu/part-4/armc-013/armc-013-cstubs.c:236
}
    8558:	e1a00003 	mov	r0, r3
    855c:	e24bd004 	sub	sp, fp, #4
    8560:	e8bd8800 	pop	{fp, pc}

00008564 <RPI_GetArmTimer>:
RPI_GetArmTimer():
/mnt/d/uni/2019-2020/CTH/Digital_project_laboratory/mcu/part-4/armc-013/rpi-armtimer.c:17
#include "rpi-armtimer.h"

static rpi_arm_timer_t* rpiArmTimer = (rpi_arm_timer_t*)RPI_ARMTIMER_BASE;

rpi_arm_timer_t* RPI_GetArmTimer(void)
{
    8564:	e52db004 	push	{fp}		; (str fp, [sp, #-4]!)
    8568:	e28db000 	add	fp, sp, #0
/mnt/d/uni/2019-2020/CTH/Digital_project_laboratory/mcu/part-4/armc-013/rpi-armtimer.c:18
    return rpiArmTimer;
    856c:	e30930ac 	movw	r3, #37036	; 0x90ac
    8570:	e3403001 	movt	r3, #1
    8574:	e5933000 	ldr	r3, [r3]
/mnt/d/uni/2019-2020/CTH/Digital_project_laboratory/mcu/part-4/armc-013/rpi-armtimer.c:19
}
    8578:	e1a00003 	mov	r0, r3
    857c:	e28bd000 	add	sp, fp, #0
    8580:	e49db004 	pop	{fp}		; (ldr fp, [sp], #4)
    8584:	e12fff1e 	bx	lr

00008588 <RPI_ArmTimerInit>:
RPI_ArmTimerInit():
/mnt/d/uni/2019-2020/CTH/Digital_project_laboratory/mcu/part-4/armc-013/rpi-armtimer.c:22

void RPI_ArmTimerInit(void)
{
    8588:	e52db004 	push	{fp}		; (str fp, [sp, #-4]!)
    858c:	e28db000 	add	fp, sp, #0
/mnt/d/uni/2019-2020/CTH/Digital_project_laboratory/mcu/part-4/armc-013/rpi-armtimer.c:24

}
    8590:	e320f000 	nop	{0}
    8594:	e28bd000 	add	sp, fp, #0
    8598:	e49db004 	pop	{fp}		; (ldr fp, [sp], #4)
    859c:	e12fff1e 	bx	lr

000085a0 <RPI_GetGpio>:
RPI_GetGpio():
/mnt/d/uni/2019-2020/CTH/Digital_project_laboratory/mcu/part-4/armc-013/rpi-gpio.c:17
#include "rpi-gpio.h"

static rpi_gpio_t* rpiGpio = (rpi_gpio_t*)RPI_GPIO_BASE;

rpi_gpio_t* RPI_GetGpio(void)
{
    85a0:	e52db004 	push	{fp}		; (str fp, [sp, #-4]!)
    85a4:	e28db000 	add	fp, sp, #0
/mnt/d/uni/2019-2020/CTH/Digital_project_laboratory/mcu/part-4/armc-013/rpi-gpio.c:18
    return rpiGpio;
    85a8:	e30930b0 	movw	r3, #37040	; 0x90b0
    85ac:	e3403001 	movt	r3, #1
    85b0:	e5933000 	ldr	r3, [r3]
/mnt/d/uni/2019-2020/CTH/Digital_project_laboratory/mcu/part-4/armc-013/rpi-gpio.c:19
}
    85b4:	e1a00003 	mov	r0, r3
    85b8:	e28bd000 	add	sp, fp, #0
    85bc:	e49db004 	pop	{fp}		; (ldr fp, [sp], #4)
    85c0:	e12fff1e 	bx	lr

000085c4 <RPI_GpioInit>:
RPI_GpioInit():
/mnt/d/uni/2019-2020/CTH/Digital_project_laboratory/mcu/part-4/armc-013/rpi-gpio.c:22

void RPI_GpioInit(void)
{
    85c4:	e52db004 	push	{fp}		; (str fp, [sp, #-4]!)
    85c8:	e28db000 	add	fp, sp, #0
/mnt/d/uni/2019-2020/CTH/Digital_project_laboratory/mcu/part-4/armc-013/rpi-gpio.c:24

}
    85cc:	e320f000 	nop	{0}
    85d0:	e28bd000 	add	sp, fp, #0
    85d4:	e49db004 	pop	{fp}		; (ldr fp, [sp], #4)
    85d8:	e12fff1e 	bx	lr

000085dc <RPI_GetIrqController>:
RPI_GetIrqController():
/mnt/d/uni/2019-2020/CTH/Digital_project_laboratory/mcu/part-4/armc-013/rpi-interrupts.c:28

/**
    @brief Return the IRQ Controller register set
*/
rpi_irq_controller_t* RPI_GetIrqController( void )
{
    85dc:	e52db004 	push	{fp}		; (str fp, [sp, #-4]!)
    85e0:	e28db000 	add	fp, sp, #0
/mnt/d/uni/2019-2020/CTH/Digital_project_laboratory/mcu/part-4/armc-013/rpi-interrupts.c:29
    return rpiIRQController;
    85e4:	e30930b4 	movw	r3, #37044	; 0x90b4
    85e8:	e3403001 	movt	r3, #1
    85ec:	e5933000 	ldr	r3, [r3]
/mnt/d/uni/2019-2020/CTH/Digital_project_laboratory/mcu/part-4/armc-013/rpi-interrupts.c:30
}
    85f0:	e1a00003 	mov	r0, r3
    85f4:	e28bd000 	add	sp, fp, #0
    85f8:	e49db004 	pop	{fp}		; (ldr fp, [sp], #4)
    85fc:	e12fff1e 	bx	lr

00008600 <reset_vector>:
reset_vector():
/mnt/d/uni/2019-2020/CTH/Digital_project_laboratory/mcu/part-4/armc-013/rpi-interrupts.c:41
    This can never be called, since an ARM core reset would also reset the
    GPU and therefore cause the GPU to start running code again until
    the ARM is handed control at the end of boot loading
*/
void __attribute__((interrupt("ABORT"))) reset_vector(void)
{
    8600:	e52db004 	push	{fp}		; (str fp, [sp, #-4]!)
    8604:	e28db000 	add	fp, sp, #0
/mnt/d/uni/2019-2020/CTH/Digital_project_laboratory/mcu/part-4/armc-013/rpi-interrupts.c:43

}
    8608:	e320f000 	nop	{0}
    860c:	e28bd000 	add	sp, fp, #0
    8610:	e49db004 	pop	{fp}		; (ldr fp, [sp], #4)
    8614:	e25ef004 	subs	pc, lr, #4

00008618 <undefined_instruction_vector>:
undefined_instruction_vector():
/mnt/d/uni/2019-2020/CTH/Digital_project_laboratory/mcu/part-4/armc-013/rpi-interrupts.c:52

    If an undefined intstruction is encountered, the CPU will start
    executing this function. Just trap here as a debug solution.
*/
void __attribute__((interrupt("UNDEF"))) undefined_instruction_vector(void)
{
    8618:	e52db004 	push	{fp}		; (str fp, [sp, #-4]!)
    861c:	e28db000 	add	fp, sp, #0
/mnt/d/uni/2019-2020/CTH/Digital_project_laboratory/mcu/part-4/armc-013/rpi-interrupts.c:53 (discriminator 1)
    while( 1 )
    8620:	eafffffe 	b	8620 <undefined_instruction_vector+0x8>

00008624 <software_interrupt_vector>:
software_interrupt_vector():
/mnt/d/uni/2019-2020/CTH/Digital_project_laboratory/mcu/part-4/armc-013/rpi-interrupts.c:67

    The CPU will start executing this function. Just trap here as a debug
    solution.
*/
void __attribute__((interrupt("SWI"))) software_interrupt_vector(void)
{
    8624:	e52db004 	push	{fp}		; (str fp, [sp, #-4]!)
    8628:	e28db000 	add	fp, sp, #0
/mnt/d/uni/2019-2020/CTH/Digital_project_laboratory/mcu/part-4/armc-013/rpi-interrupts.c:68 (discriminator 1)
    while( 1 )
    862c:	eafffffe 	b	862c <software_interrupt_vector+0x8>

00008630 <prefetch_abort_vector>:
prefetch_abort_vector():
/mnt/d/uni/2019-2020/CTH/Digital_project_laboratory/mcu/part-4/armc-013/rpi-interrupts.c:82

    The CPU will start executing this function. Just trap here as a debug
    solution.
*/
void __attribute__((interrupt("ABORT"))) prefetch_abort_vector(void)
{
    8630:	e52db004 	push	{fp}		; (str fp, [sp, #-4]!)
    8634:	e28db000 	add	fp, sp, #0
/mnt/d/uni/2019-2020/CTH/Digital_project_laboratory/mcu/part-4/armc-013/rpi-interrupts.c:84

}
    8638:	e320f000 	nop	{0}
    863c:	e28bd000 	add	sp, fp, #0
    8640:	e49db004 	pop	{fp}		; (ldr fp, [sp], #4)
    8644:	e25ef004 	subs	pc, lr, #4

00008648 <data_abort_vector>:
data_abort_vector():
/mnt/d/uni/2019-2020/CTH/Digital_project_laboratory/mcu/part-4/armc-013/rpi-interrupts.c:94

    The CPU will start executing this function. Just trap here as a debug
    solution.
*/
void __attribute__((interrupt("ABORT"))) data_abort_vector(void)
{
    8648:	e52db004 	push	{fp}		; (str fp, [sp, #-4]!)
    864c:	e28db000 	add	fp, sp, #0
/mnt/d/uni/2019-2020/CTH/Digital_project_laboratory/mcu/part-4/armc-013/rpi-interrupts.c:96

}
    8650:	e320f000 	nop	{0}
    8654:	e28bd000 	add	sp, fp, #0
    8658:	e49db004 	pop	{fp}		; (ldr fp, [sp], #4)
    865c:	e25ef004 	subs	pc, lr, #4

00008660 <interrupt_vector>:
interrupt_vector():
/mnt/d/uni/2019-2020/CTH/Digital_project_laboratory/mcu/part-4/armc-013/rpi-interrupts.c:108
    up to the handler to determine the source of the interrupt and most
    importantly clear the interrupt flag so that the interrupt won't
    immediately put us back into the start of the handler again.
*/
void __attribute__((interrupt("IRQ"))) interrupt_vector(void)
{
    8660:	e24ee004 	sub	lr, lr, #4
    8664:	e92d581f 	push	{r0, r1, r2, r3, r4, fp, ip, lr}
    8668:	e28db01c 	add	fp, sp, #28
/mnt/d/uni/2019-2020/CTH/Digital_project_laboratory/mcu/part-4/armc-013/rpi-interrupts.c:114
    static int lit = 0;

    /* Clear the ARM Timer interrupt - it's the only interrupt we have
       enabled, so we want don't have to work out which interrupt source
       caused us to interrupt */
    RPI_GetArmTimer()->IRQClear = 1;
    866c:	ebffffbc 	bl	8564 <RPI_GetArmTimer>
    8670:	e1a02000 	mov	r2, r0
    8674:	e3a03001 	mov	r3, #1
    8678:	e582300c 	str	r3, [r2, #12]
/mnt/d/uni/2019-2020/CTH/Digital_project_laboratory/mcu/part-4/armc-013/rpi-interrupts.c:117

    /* Flip the LED */
    if( lit )
    867c:	e3093900 	movw	r3, #39168	; 0x9900
    8680:	e3403001 	movt	r3, #1
    8684:	e5933000 	ldr	r3, [r3]
    8688:	e3530000 	cmp	r3, #0
    868c:	0a000008 	beq	86b4 <interrupt_vector+0x54>
/mnt/d/uni/2019-2020/CTH/Digital_project_laboratory/mcu/part-4/armc-013/rpi-interrupts.c:119
    {
        LED_OFF();
    8690:	ebffffc2 	bl	85a0 <RPI_GetGpio>
    8694:	e1a02000 	mov	r2, r0
    8698:	e3a03902 	mov	r3, #32768	; 0x8000
    869c:	e582302c 	str	r3, [r2, #44]	; 0x2c
/mnt/d/uni/2019-2020/CTH/Digital_project_laboratory/mcu/part-4/armc-013/rpi-interrupts.c:120
        lit = 0;
    86a0:	e3093900 	movw	r3, #39168	; 0x9900
    86a4:	e3403001 	movt	r3, #1
    86a8:	e3a02000 	mov	r2, #0
    86ac:	e5832000 	str	r2, [r3]
/mnt/d/uni/2019-2020/CTH/Digital_project_laboratory/mcu/part-4/armc-013/rpi-interrupts.c:127
    else
    {
        LED_ON();
        lit = 1;
    }
}
    86b0:	ea000007 	b	86d4 <interrupt_vector+0x74>
/mnt/d/uni/2019-2020/CTH/Digital_project_laboratory/mcu/part-4/armc-013/rpi-interrupts.c:124
        LED_ON();
    86b4:	ebffffb9 	bl	85a0 <RPI_GetGpio>
    86b8:	e1a02000 	mov	r2, r0
    86bc:	e3a03902 	mov	r3, #32768	; 0x8000
    86c0:	e5823020 	str	r3, [r2, #32]
/mnt/d/uni/2019-2020/CTH/Digital_project_laboratory/mcu/part-4/armc-013/rpi-interrupts.c:125
        lit = 1;
    86c4:	e3093900 	movw	r3, #39168	; 0x9900
    86c8:	e3403001 	movt	r3, #1
    86cc:	e3a02001 	mov	r2, #1
    86d0:	e5832000 	str	r2, [r3]
/mnt/d/uni/2019-2020/CTH/Digital_project_laboratory/mcu/part-4/armc-013/rpi-interrupts.c:127
}
    86d4:	e320f000 	nop	{0}
    86d8:	e24bd01c 	sub	sp, fp, #28
    86dc:	e8fd981f 	ldm	sp!, {r0, r1, r2, r3, r4, fp, ip, pc}^

000086e0 <fast_interrupt_vector>:
fast_interrupt_vector():
/mnt/d/uni/2019-2020/CTH/Digital_project_laboratory/mcu/part-4/armc-013/rpi-interrupts.c:156
    being the epilogue code. For the FIQ interrupt handler this is nearly
    empty because the CPU has switched to a fresh set of registers and so has
    not altered the main set of registers.
*/
void __attribute__((interrupt("FIQ"))) fast_interrupt_vector(void)
{
    86e0:	e24db004 	sub	fp, sp, #4
/mnt/d/uni/2019-2020/CTH/Digital_project_laboratory/mcu/part-4/armc-013/rpi-interrupts.c:158

}
    86e4:	e320f000 	nop	{0}
    86e8:	e28bd004 	add	sp, fp, #4
    86ec:	e25ef004 	subs	pc, lr, #4

000086f0 <RPI_GetSystemTimer>:
RPI_GetSystemTimer():
/mnt/d/uni/2019-2020/CTH/Digital_project_laboratory/mcu/part-4/armc-013/rpi-systimer.c:17
#include "rpi-systimer.h"

static rpi_sys_timer_t* rpiSystemTimer = (rpi_sys_timer_t*)RPI_SYSTIMER_BASE;

rpi_sys_timer_t* RPI_GetSystemTimer(void)
{
    86f0:	e52db004 	push	{fp}		; (str fp, [sp, #-4]!)
    86f4:	e28db000 	add	fp, sp, #0
/mnt/d/uni/2019-2020/CTH/Digital_project_laboratory/mcu/part-4/armc-013/rpi-systimer.c:18
    return rpiSystemTimer;
    86f8:	e30930b8 	movw	r3, #37048	; 0x90b8
    86fc:	e3403001 	movt	r3, #1
    8700:	e5933000 	ldr	r3, [r3]
/mnt/d/uni/2019-2020/CTH/Digital_project_laboratory/mcu/part-4/armc-013/rpi-systimer.c:19
}
    8704:	e1a00003 	mov	r0, r3
    8708:	e28bd000 	add	sp, fp, #0
    870c:	e49db004 	pop	{fp}		; (ldr fp, [sp], #4)
    8710:	e12fff1e 	bx	lr

00008714 <RPI_WaitMicroSeconds>:
RPI_WaitMicroSeconds():
/mnt/d/uni/2019-2020/CTH/Digital_project_laboratory/mcu/part-4/armc-013/rpi-systimer.c:22

void RPI_WaitMicroSeconds( uint32_t us )
{
    8714:	e52db004 	push	{fp}		; (str fp, [sp, #-4]!)
    8718:	e28db000 	add	fp, sp, #0
    871c:	e24dd014 	sub	sp, sp, #20
    8720:	e50b0010 	str	r0, [fp, #-16]
/mnt/d/uni/2019-2020/CTH/Digital_project_laboratory/mcu/part-4/armc-013/rpi-systimer.c:23
    volatile uint32_t ts = rpiSystemTimer->counter_lo;
    8724:	e30930b8 	movw	r3, #37048	; 0x90b8
    8728:	e3403001 	movt	r3, #1
    872c:	e5933000 	ldr	r3, [r3]
    8730:	e5933004 	ldr	r3, [r3, #4]
    8734:	e50b3008 	str	r3, [fp, #-8]
/mnt/d/uni/2019-2020/CTH/Digital_project_laboratory/mcu/part-4/armc-013/rpi-systimer.c:25

    while( ( rpiSystemTimer->counter_lo - ts ) < us )
    8738:	e320f000 	nop	{0}
/mnt/d/uni/2019-2020/CTH/Digital_project_laboratory/mcu/part-4/armc-013/rpi-systimer.c:25 (discriminator 1)
    873c:	e30930b8 	movw	r3, #37048	; 0x90b8
    8740:	e3403001 	movt	r3, #1
    8744:	e5933000 	ldr	r3, [r3]
    8748:	e5932004 	ldr	r2, [r3, #4]
    874c:	e51b3008 	ldr	r3, [fp, #-8]
    8750:	e0423003 	sub	r3, r2, r3
    8754:	e51b2010 	ldr	r2, [fp, #-16]
    8758:	e1520003 	cmp	r2, r3
    875c:	8afffff6 	bhi	873c <RPI_WaitMicroSeconds+0x28>
/mnt/d/uni/2019-2020/CTH/Digital_project_laboratory/mcu/part-4/armc-013/rpi-systimer.c:29
    {
        /* BLANK */
    }
}
    8760:	e320f000 	nop	{0}
    8764:	e28bd000 	add	sp, fp, #0
    8768:	e49db004 	pop	{fp}		; (ldr fp, [sp], #4)
    876c:	e12fff1e 	bx	lr

00008770 <cleanup_glue>:
cleanup_glue():
    8770:	b538      	push	{r3, r4, r5, lr}
    8772:	460c      	mov	r4, r1
    8774:	6809      	ldr	r1, [r1, #0]
    8776:	4605      	mov	r5, r0
    8778:	b929      	cbnz	r1, 8786 <cleanup_glue+0x16>
    877a:	4621      	mov	r1, r4
    877c:	4628      	mov	r0, r5
    877e:	e8bd 4038 	ldmia.w	sp!, {r3, r4, r5, lr}
    8782:	f000 b8a3 	b.w	88cc <_free_r>
    8786:	f7ff fff3 	bl	8770 <cleanup_glue>
    878a:	4621      	mov	r1, r4
    878c:	4628      	mov	r0, r5
    878e:	e8bd 4038 	ldmia.w	sp!, {r3, r4, r5, lr}
    8792:	f000 b89b 	b.w	88cc <_free_r>
    8796:	bf00      	nop

00008798 <_reclaim_reent>:
_reclaim_reent():
    8798:	f249 03bc 	movw	r3, #37052	; 0x90bc
    879c:	f2c0 0301 	movt	r3, #1
    87a0:	681b      	ldr	r3, [r3, #0]
    87a2:	4283      	cmp	r3, r0
    87a4:	d03b      	beq.n	881e <_reclaim_reent+0x86>
    87a6:	6cc3      	ldr	r3, [r0, #76]	; 0x4c
    87a8:	b570      	push	{r4, r5, r6, lr}
    87aa:	4605      	mov	r5, r0
    87ac:	b18b      	cbz	r3, 87d2 <_reclaim_reent+0x3a>
    87ae:	2600      	movs	r6, #0
    87b0:	5999      	ldr	r1, [r3, r6]
    87b2:	b139      	cbz	r1, 87c4 <_reclaim_reent+0x2c>
    87b4:	680c      	ldr	r4, [r1, #0]
    87b6:	4628      	mov	r0, r5
    87b8:	f000 f888 	bl	88cc <_free_r>
    87bc:	4621      	mov	r1, r4
    87be:	2c00      	cmp	r4, #0
    87c0:	d1f8      	bne.n	87b4 <_reclaim_reent+0x1c>
    87c2:	6ceb      	ldr	r3, [r5, #76]	; 0x4c
    87c4:	3604      	adds	r6, #4
    87c6:	2e80      	cmp	r6, #128	; 0x80
    87c8:	d1f2      	bne.n	87b0 <_reclaim_reent+0x18>
    87ca:	4619      	mov	r1, r3
    87cc:	4628      	mov	r0, r5
    87ce:	f000 f87d 	bl	88cc <_free_r>
    87d2:	6c29      	ldr	r1, [r5, #64]	; 0x40
    87d4:	b111      	cbz	r1, 87dc <_reclaim_reent+0x44>
    87d6:	4628      	mov	r0, r5
    87d8:	f000 f878 	bl	88cc <_free_r>
    87dc:	f8d5 1148 	ldr.w	r1, [r5, #328]	; 0x148
    87e0:	b151      	cbz	r1, 87f8 <_reclaim_reent+0x60>
    87e2:	f505 76a6 	add.w	r6, r5, #332	; 0x14c
    87e6:	42b1      	cmp	r1, r6
    87e8:	d006      	beq.n	87f8 <_reclaim_reent+0x60>
    87ea:	680c      	ldr	r4, [r1, #0]
    87ec:	4628      	mov	r0, r5
    87ee:	f000 f86d 	bl	88cc <_free_r>
    87f2:	42a6      	cmp	r6, r4
    87f4:	4621      	mov	r1, r4
    87f6:	d1f8      	bne.n	87ea <_reclaim_reent+0x52>
    87f8:	6d69      	ldr	r1, [r5, #84]	; 0x54
    87fa:	b111      	cbz	r1, 8802 <_reclaim_reent+0x6a>
    87fc:	4628      	mov	r0, r5
    87fe:	f000 f865 	bl	88cc <_free_r>
    8802:	6bab      	ldr	r3, [r5, #56]	; 0x38
    8804:	b153      	cbz	r3, 881c <_reclaim_reent+0x84>
    8806:	6beb      	ldr	r3, [r5, #60]	; 0x3c
    8808:	4628      	mov	r0, r5
    880a:	4798      	blx	r3
    880c:	f8d5 12e0 	ldr.w	r1, [r5, #736]	; 0x2e0
    8810:	b121      	cbz	r1, 881c <_reclaim_reent+0x84>
    8812:	4628      	mov	r0, r5
    8814:	e8bd 4070 	ldmia.w	sp!, {r4, r5, r6, lr}
    8818:	f7ff bfaa 	b.w	8770 <cleanup_glue>
    881c:	bd70      	pop	{r4, r5, r6, pc}
    881e:	4770      	bx	lr

00008820 <_malloc_trim_r>:
_malloc_trim_r():
    8820:	b5f8      	push	{r3, r4, r5, r6, r7, lr}
    8822:	f249 47e8 	movw	r7, #38120	; 0x94e8
    8826:	f2c0 0701 	movt	r7, #1
    882a:	460c      	mov	r4, r1
    882c:	4606      	mov	r6, r0
    882e:	f000 fc03 	bl	9038 <__malloc_lock>
    8832:	68bb      	ldr	r3, [r7, #8]
    8834:	f5c4 617e 	rsb	r1, r4, #4064	; 0xfe0
    8838:	310f      	adds	r1, #15
    883a:	685d      	ldr	r5, [r3, #4]
    883c:	f025 0503 	bic.w	r5, r5, #3
    8840:	4429      	add	r1, r5
    8842:	f421 617f 	bic.w	r1, r1, #4080	; 0xff0
    8846:	f021 010f 	bic.w	r1, r1, #15
    884a:	f5a1 5480 	sub.w	r4, r1, #4096	; 0x1000
    884e:	f5b4 5f80 	cmp.w	r4, #4096	; 0x1000
    8852:	db07      	blt.n	8864 <_malloc_trim_r+0x44>
    8854:	2100      	movs	r1, #0
    8856:	4630      	mov	r0, r6
    8858:	f000 fbfa 	bl	9050 <_sbrk_r>
    885c:	68bb      	ldr	r3, [r7, #8]
    885e:	442b      	add	r3, r5
    8860:	4298      	cmp	r0, r3
    8862:	d004      	beq.n	886e <_malloc_trim_r+0x4e>
    8864:	4630      	mov	r0, r6
    8866:	f000 fbed 	bl	9044 <__malloc_unlock>
    886a:	2000      	movs	r0, #0
    886c:	bdf8      	pop	{r3, r4, r5, r6, r7, pc}
    886e:	4261      	negs	r1, r4
    8870:	4630      	mov	r0, r6
    8872:	f000 fbed 	bl	9050 <_sbrk_r>
    8876:	3001      	adds	r0, #1
    8878:	d010      	beq.n	889c <_malloc_trim_r+0x7c>
    887a:	68ba      	ldr	r2, [r7, #8]
    887c:	f649 1304 	movw	r3, #39172	; 0x9904
    8880:	f2c0 0301 	movt	r3, #1
    8884:	1b2d      	subs	r5, r5, r4
    8886:	4630      	mov	r0, r6
    8888:	f045 0501 	orr.w	r5, r5, #1
    888c:	6819      	ldr	r1, [r3, #0]
    888e:	6055      	str	r5, [r2, #4]
    8890:	1b09      	subs	r1, r1, r4
    8892:	6019      	str	r1, [r3, #0]
    8894:	f000 fbd6 	bl	9044 <__malloc_unlock>
    8898:	2001      	movs	r0, #1
    889a:	bdf8      	pop	{r3, r4, r5, r6, r7, pc}
    889c:	2100      	movs	r1, #0
    889e:	4630      	mov	r0, r6
    88a0:	f000 fbd6 	bl	9050 <_sbrk_r>
    88a4:	68ba      	ldr	r2, [r7, #8]
    88a6:	1a83      	subs	r3, r0, r2
    88a8:	2b0f      	cmp	r3, #15
    88aa:	dddb      	ble.n	8864 <_malloc_trim_r+0x44>
    88ac:	f649 04f0 	movw	r4, #39152	; 0x98f0
    88b0:	f2c0 0401 	movt	r4, #1
    88b4:	f649 1104 	movw	r1, #39172	; 0x9904
    88b8:	f2c0 0101 	movt	r1, #1
    88bc:	6824      	ldr	r4, [r4, #0]
    88be:	f043 0301 	orr.w	r3, r3, #1
    88c2:	6053      	str	r3, [r2, #4]
    88c4:	1b00      	subs	r0, r0, r4
    88c6:	6008      	str	r0, [r1, #0]
    88c8:	e7cc      	b.n	8864 <_malloc_trim_r+0x44>
    88ca:	bf00      	nop

000088cc <_free_r>:
_free_r():
    88cc:	2900      	cmp	r1, #0
    88ce:	d055      	beq.n	897c <_free_r+0xb0>
    88d0:	b5f8      	push	{r3, r4, r5, r6, r7, lr}
    88d2:	460c      	mov	r4, r1
    88d4:	4606      	mov	r6, r0
    88d6:	f000 fbaf 	bl	9038 <__malloc_lock>
    88da:	f854 cc04 	ldr.w	ip, [r4, #-4]
    88de:	f249 47e8 	movw	r7, #38120	; 0x94e8
    88e2:	f2c0 0701 	movt	r7, #1
    88e6:	f1a4 0508 	sub.w	r5, r4, #8
    88ea:	f02c 0101 	bic.w	r1, ip, #1
    88ee:	186b      	adds	r3, r5, r1
    88f0:	68b8      	ldr	r0, [r7, #8]
    88f2:	685a      	ldr	r2, [r3, #4]
    88f4:	4298      	cmp	r0, r3
    88f6:	f022 0203 	bic.w	r2, r2, #3
    88fa:	d052      	beq.n	89a2 <_free_r+0xd6>
    88fc:	f01c 0f01 	tst.w	ip, #1
    8900:	605a      	str	r2, [r3, #4]
    8902:	eb03 0002 	add.w	r0, r3, r2
    8906:	d13a      	bne.n	897e <_free_r+0xb2>
    8908:	f854 4c08 	ldr.w	r4, [r4, #-8]
    890c:	f107 0c08 	add.w	ip, r7, #8
    8910:	6840      	ldr	r0, [r0, #4]
    8912:	1b2d      	subs	r5, r5, r4
    8914:	4421      	add	r1, r4
    8916:	f000 0001 	and.w	r0, r0, #1
    891a:	68ac      	ldr	r4, [r5, #8]
    891c:	4564      	cmp	r4, ip
    891e:	d07b      	beq.n	8a18 <_free_r+0x14c>
    8920:	f8d5 c00c 	ldr.w	ip, [r5, #12]
    8924:	f8c4 c00c 	str.w	ip, [r4, #12]
    8928:	f8cc 4008 	str.w	r4, [ip, #8]
    892c:	b360      	cbz	r0, 8988 <_free_r+0xbc>
    892e:	f041 0301 	orr.w	r3, r1, #1
    8932:	606b      	str	r3, [r5, #4]
    8934:	5069      	str	r1, [r5, r1]
    8936:	f5b1 7f00 	cmp.w	r1, #512	; 0x200
    893a:	d356      	bcc.n	89ea <_free_r+0x11e>
    893c:	0a4b      	lsrs	r3, r1, #9
    893e:	2b04      	cmp	r3, #4
    8940:	d876      	bhi.n	8a30 <_free_r+0x164>
    8942:	098b      	lsrs	r3, r1, #6
    8944:	f103 0039 	add.w	r0, r3, #57	; 0x39
    8948:	f103 0238 	add.w	r2, r3, #56	; 0x38
    894c:	00c3      	lsls	r3, r0, #3
    894e:	18f8      	adds	r0, r7, r3
    8950:	58fb      	ldr	r3, [r7, r3]
    8952:	3808      	subs	r0, #8
    8954:	4298      	cmp	r0, r3
    8956:	d07e      	beq.n	8a56 <_free_r+0x18a>
    8958:	685a      	ldr	r2, [r3, #4]
    895a:	f022 0203 	bic.w	r2, r2, #3
    895e:	428a      	cmp	r2, r1
    8960:	d977      	bls.n	8a52 <_free_r+0x186>
    8962:	689b      	ldr	r3, [r3, #8]
    8964:	4298      	cmp	r0, r3
    8966:	d1f7      	bne.n	8958 <_free_r+0x8c>
    8968:	68c1      	ldr	r1, [r0, #12]
    896a:	e9c5 0102 	strd	r0, r1, [r5, #8]
    896e:	608d      	str	r5, [r1, #8]
    8970:	60c5      	str	r5, [r0, #12]
    8972:	4630      	mov	r0, r6
    8974:	e8bd 40f8 	ldmia.w	sp!, {r3, r4, r5, r6, r7, lr}
    8978:	f000 bb64 	b.w	9044 <__malloc_unlock>
    897c:	4770      	bx	lr
    897e:	6840      	ldr	r0, [r0, #4]
    8980:	f000 0001 	and.w	r0, r0, #1
    8984:	2800      	cmp	r0, #0
    8986:	d1d2      	bne.n	892e <_free_r+0x62>
    8988:	6898      	ldr	r0, [r3, #8]
    898a:	4411      	add	r1, r2
    898c:	4c49      	ldr	r4, [pc, #292]	; (8ab4 <_free_r+0x1e8>)
    898e:	f041 0201 	orr.w	r2, r1, #1
    8992:	42a0      	cmp	r0, r4
    8994:	d068      	beq.n	8a68 <_free_r+0x19c>
    8996:	68db      	ldr	r3, [r3, #12]
    8998:	60c3      	str	r3, [r0, #12]
    899a:	6098      	str	r0, [r3, #8]
    899c:	606a      	str	r2, [r5, #4]
    899e:	5069      	str	r1, [r5, r1]
    89a0:	e7c9      	b.n	8936 <_free_r+0x6a>
    89a2:	f01c 0f01 	tst.w	ip, #1
    89a6:	440a      	add	r2, r1
    89a8:	d107      	bne.n	89ba <_free_r+0xee>
    89aa:	f854 3c08 	ldr.w	r3, [r4, #-8]
    89ae:	1aed      	subs	r5, r5, r3
    89b0:	441a      	add	r2, r3
    89b2:	e9d5 1302 	ldrd	r1, r3, [r5, #8]
    89b6:	60cb      	str	r3, [r1, #12]
    89b8:	6099      	str	r1, [r3, #8]
    89ba:	f649 03f4 	movw	r3, #39156	; 0x98f4
    89be:	f2c0 0301 	movt	r3, #1
    89c2:	f042 0101 	orr.w	r1, r2, #1
    89c6:	6069      	str	r1, [r5, #4]
    89c8:	681b      	ldr	r3, [r3, #0]
    89ca:	60bd      	str	r5, [r7, #8]
    89cc:	4293      	cmp	r3, r2
    89ce:	d807      	bhi.n	89e0 <_free_r+0x114>
    89d0:	f649 1334 	movw	r3, #39220	; 0x9934
    89d4:	f2c0 0301 	movt	r3, #1
    89d8:	4630      	mov	r0, r6
    89da:	6819      	ldr	r1, [r3, #0]
    89dc:	f7ff ff20 	bl	8820 <_malloc_trim_r>
    89e0:	4630      	mov	r0, r6
    89e2:	e8bd 40f8 	ldmia.w	sp!, {r3, r4, r5, r6, r7, lr}
    89e6:	f000 bb2d 	b.w	9044 <__malloc_unlock>
    89ea:	08c9      	lsrs	r1, r1, #3
    89ec:	2301      	movs	r3, #1
    89ee:	18c8      	adds	r0, r1, r3
    89f0:	687a      	ldr	r2, [r7, #4]
    89f2:	1089      	asrs	r1, r1, #2
    89f4:	408b      	lsls	r3, r1
    89f6:	f857 1030 	ldr.w	r1, [r7, r0, lsl #3]
    89fa:	4313      	orrs	r3, r2
    89fc:	eb07 02c0 	add.w	r2, r7, r0, lsl #3
    8a00:	607b      	str	r3, [r7, #4]
    8a02:	3a08      	subs	r2, #8
    8a04:	e9c5 1202 	strd	r1, r2, [r5, #8]
    8a08:	f847 5030 	str.w	r5, [r7, r0, lsl #3]
    8a0c:	4630      	mov	r0, r6
    8a0e:	60cd      	str	r5, [r1, #12]
    8a10:	e8bd 40f8 	ldmia.w	sp!, {r3, r4, r5, r6, r7, lr}
    8a14:	f000 bb16 	b.w	9044 <__malloc_unlock>
    8a18:	2800      	cmp	r0, #0
    8a1a:	d145      	bne.n	8aa8 <_free_r+0x1dc>
    8a1c:	6898      	ldr	r0, [r3, #8]
    8a1e:	440a      	add	r2, r1
    8a20:	68db      	ldr	r3, [r3, #12]
    8a22:	f042 0101 	orr.w	r1, r2, #1
    8a26:	60c3      	str	r3, [r0, #12]
    8a28:	6098      	str	r0, [r3, #8]
    8a2a:	6069      	str	r1, [r5, #4]
    8a2c:	50aa      	str	r2, [r5, r2]
    8a2e:	e7d7      	b.n	89e0 <_free_r+0x114>
    8a30:	2b14      	cmp	r3, #20
    8a32:	d908      	bls.n	8a46 <_free_r+0x17a>
    8a34:	2b54      	cmp	r3, #84	; 0x54
    8a36:	d81e      	bhi.n	8a76 <_free_r+0x1aa>
    8a38:	0b0b      	lsrs	r3, r1, #12
    8a3a:	f103 006f 	add.w	r0, r3, #111	; 0x6f
    8a3e:	f103 026e 	add.w	r2, r3, #110	; 0x6e
    8a42:	00c3      	lsls	r3, r0, #3
    8a44:	e783      	b.n	894e <_free_r+0x82>
    8a46:	f103 005c 	add.w	r0, r3, #92	; 0x5c
    8a4a:	f103 025b 	add.w	r2, r3, #91	; 0x5b
    8a4e:	00c3      	lsls	r3, r0, #3
    8a50:	e77d      	b.n	894e <_free_r+0x82>
    8a52:	4618      	mov	r0, r3
    8a54:	e788      	b.n	8968 <_free_r+0x9c>
    8a56:	1093      	asrs	r3, r2, #2
    8a58:	687c      	ldr	r4, [r7, #4]
    8a5a:	2201      	movs	r2, #1
    8a5c:	4601      	mov	r1, r0
    8a5e:	fa02 f303 	lsl.w	r3, r2, r3
    8a62:	4323      	orrs	r3, r4
    8a64:	607b      	str	r3, [r7, #4]
    8a66:	e780      	b.n	896a <_free_r+0x9e>
    8a68:	e9c7 5504 	strd	r5, r5, [r7, #16]
    8a6c:	e9c5 0002 	strd	r0, r0, [r5, #8]
    8a70:	606a      	str	r2, [r5, #4]
    8a72:	5069      	str	r1, [r5, r1]
    8a74:	e7b4      	b.n	89e0 <_free_r+0x114>
    8a76:	f5b3 7faa 	cmp.w	r3, #340	; 0x154
    8a7a:	d806      	bhi.n	8a8a <_free_r+0x1be>
    8a7c:	0bcb      	lsrs	r3, r1, #15
    8a7e:	f103 0078 	add.w	r0, r3, #120	; 0x78
    8a82:	f103 0277 	add.w	r2, r3, #119	; 0x77
    8a86:	00c3      	lsls	r3, r0, #3
    8a88:	e761      	b.n	894e <_free_r+0x82>
    8a8a:	f240 5254 	movw	r2, #1364	; 0x554
    8a8e:	4293      	cmp	r3, r2
    8a90:	bf9d      	ittte	ls
    8a92:	0c8b      	lsrls	r3, r1, #18
    8a94:	f103 007d 	addls.w	r0, r3, #125	; 0x7d
    8a98:	f103 027c 	addls.w	r2, r3, #124	; 0x7c
    8a9c:	f44f 737e 	movhi.w	r3, #1016	; 0x3f8
    8aa0:	bf8c      	ite	hi
    8aa2:	227e      	movhi	r2, #126	; 0x7e
    8aa4:	00c3      	lslls	r3, r0, #3
    8aa6:	e752      	b.n	894e <_free_r+0x82>
    8aa8:	f041 0201 	orr.w	r2, r1, #1
    8aac:	606a      	str	r2, [r5, #4]
    8aae:	6019      	str	r1, [r3, #0]
    8ab0:	e796      	b.n	89e0 <_free_r+0x114>
    8ab2:	bf00      	nop
    8ab4:	000194f0 	strdeq	r9, [r1], -r0

00008ab8 <_malloc_r>:
_malloc_r():
    8ab8:	e92d 4ff0 	stmdb	sp!, {r4, r5, r6, r7, r8, r9, sl, fp, lr}
    8abc:	f101 050b 	add.w	r5, r1, #11
    8ac0:	2d16      	cmp	r5, #22
    8ac2:	b083      	sub	sp, #12
    8ac4:	4606      	mov	r6, r0
    8ac6:	d827      	bhi.n	8b18 <_malloc_r+0x60>
    8ac8:	2910      	cmp	r1, #16
    8aca:	f200 8196 	bhi.w	8dfa <_malloc_r+0x342>
    8ace:	f000 fab3 	bl	9038 <__malloc_lock>
    8ad2:	2510      	movs	r5, #16
    8ad4:	2218      	movs	r2, #24
    8ad6:	2402      	movs	r4, #2
    8ad8:	f249 47e8 	movw	r7, #38120	; 0x94e8
    8adc:	f2c0 0701 	movt	r7, #1
    8ae0:	443a      	add	r2, r7
    8ae2:	f1a2 0108 	sub.w	r1, r2, #8
    8ae6:	6853      	ldr	r3, [r2, #4]
    8ae8:	428b      	cmp	r3, r1
    8aea:	f000 81af 	beq.w	8e4c <_malloc_r+0x394>
    8aee:	685a      	ldr	r2, [r3, #4]
    8af0:	f103 0408 	add.w	r4, r3, #8
    8af4:	68d9      	ldr	r1, [r3, #12]
    8af6:	4630      	mov	r0, r6
    8af8:	f022 0203 	bic.w	r2, r2, #3
    8afc:	689d      	ldr	r5, [r3, #8]
    8afe:	4413      	add	r3, r2
    8b00:	685a      	ldr	r2, [r3, #4]
    8b02:	60e9      	str	r1, [r5, #12]
    8b04:	f042 0201 	orr.w	r2, r2, #1
    8b08:	608d      	str	r5, [r1, #8]
    8b0a:	605a      	str	r2, [r3, #4]
    8b0c:	f000 fa9a 	bl	9044 <__malloc_unlock>
    8b10:	4620      	mov	r0, r4
    8b12:	b003      	add	sp, #12
    8b14:	e8bd 8ff0 	ldmia.w	sp!, {r4, r5, r6, r7, r8, r9, sl, fp, pc}
    8b18:	f025 0507 	bic.w	r5, r5, #7
    8b1c:	42a9      	cmp	r1, r5
    8b1e:	bf94      	ite	ls
    8b20:	2100      	movls	r1, #0
    8b22:	2101      	movhi	r1, #1
    8b24:	ea51 73d5 	orrs.w	r3, r1, r5, lsr #31
    8b28:	f040 8167 	bne.w	8dfa <_malloc_r+0x342>
    8b2c:	f000 fa84 	bl	9038 <__malloc_lock>
    8b30:	f5b5 7ffc 	cmp.w	r5, #504	; 0x1f8
    8b34:	f0c0 81a8 	bcc.w	8e88 <_malloc_r+0x3d0>
    8b38:	0a6b      	lsrs	r3, r5, #9
    8b3a:	d00b      	beq.n	8b54 <_malloc_r+0x9c>
    8b3c:	2b04      	cmp	r3, #4
    8b3e:	f240 8155 	bls.w	8dec <_malloc_r+0x334>
    8b42:	2b14      	cmp	r3, #20
    8b44:	f200 81dd 	bhi.w	8f02 <_malloc_r+0x44a>
    8b48:	f103 045c 	add.w	r4, r3, #92	; 0x5c
    8b4c:	f103 0c5b 	add.w	ip, r3, #91	; 0x5b
    8b50:	00e3      	lsls	r3, r4, #3
    8b52:	e004      	b.n	8b5e <_malloc_r+0xa6>
    8b54:	f44f 7300 	mov.w	r3, #512	; 0x200
    8b58:	2440      	movs	r4, #64	; 0x40
    8b5a:	f04f 0c3f 	mov.w	ip, #63	; 0x3f
    8b5e:	f249 47e8 	movw	r7, #38120	; 0x94e8
    8b62:	f2c0 0701 	movt	r7, #1
    8b66:	443b      	add	r3, r7
    8b68:	f1a3 0008 	sub.w	r0, r3, #8
    8b6c:	685b      	ldr	r3, [r3, #4]
    8b6e:	4298      	cmp	r0, r3
    8b70:	d106      	bne.n	8b80 <_malloc_r+0xc8>
    8b72:	e00c      	b.n	8b8e <_malloc_r+0xd6>
    8b74:	2900      	cmp	r1, #0
    8b76:	f280 8147 	bge.w	8e08 <_malloc_r+0x350>
    8b7a:	68db      	ldr	r3, [r3, #12]
    8b7c:	4298      	cmp	r0, r3
    8b7e:	d006      	beq.n	8b8e <_malloc_r+0xd6>
    8b80:	685a      	ldr	r2, [r3, #4]
    8b82:	f022 0203 	bic.w	r2, r2, #3
    8b86:	1b51      	subs	r1, r2, r5
    8b88:	290f      	cmp	r1, #15
    8b8a:	ddf3      	ble.n	8b74 <_malloc_r+0xbc>
    8b8c:	4664      	mov	r4, ip
    8b8e:	693a      	ldr	r2, [r7, #16]
    8b90:	f8df c4a0 	ldr.w	ip, [pc, #1184]	; 9034 <_malloc_r+0x57c>
    8b94:	4562      	cmp	r2, ip
    8b96:	bf08      	it	eq
    8b98:	687b      	ldreq	r3, [r7, #4]
    8b9a:	d026      	beq.n	8bea <_malloc_r+0x132>
    8b9c:	6853      	ldr	r3, [r2, #4]
    8b9e:	f023 0303 	bic.w	r3, r3, #3
    8ba2:	1b59      	subs	r1, r3, r5
    8ba4:	290f      	cmp	r1, #15
    8ba6:	f300 8158 	bgt.w	8e5a <_malloc_r+0x3a2>
    8baa:	2900      	cmp	r1, #0
    8bac:	e9c7 cc04 	strd	ip, ip, [r7, #16]
    8bb0:	f280 810e 	bge.w	8dd0 <_malloc_r+0x318>
    8bb4:	f5b3 7f00 	cmp.w	r3, #512	; 0x200
    8bb8:	f080 8182 	bcs.w	8ec0 <_malloc_r+0x408>
    8bbc:	08db      	lsrs	r3, r3, #3
    8bbe:	f04f 0e01 	mov.w	lr, #1
    8bc2:	eb03 000e 	add.w	r0, r3, lr
    8bc6:	6879      	ldr	r1, [r7, #4]
    8bc8:	109b      	asrs	r3, r3, #2
    8bca:	f857 8030 	ldr.w	r8, [r7, r0, lsl #3]
    8bce:	fa0e f303 	lsl.w	r3, lr, r3
    8bd2:	eb07 0ec0 	add.w	lr, r7, r0, lsl #3
    8bd6:	430b      	orrs	r3, r1
    8bd8:	f1ae 0108 	sub.w	r1, lr, #8
    8bdc:	607b      	str	r3, [r7, #4]
    8bde:	e9c2 8102 	strd	r8, r1, [r2, #8]
    8be2:	f847 2030 	str.w	r2, [r7, r0, lsl #3]
    8be6:	f8c8 200c 	str.w	r2, [r8, #12]
    8bea:	10a2      	asrs	r2, r4, #2
    8bec:	2001      	movs	r0, #1
    8bee:	4090      	lsls	r0, r2
    8bf0:	4298      	cmp	r0, r3
    8bf2:	d838      	bhi.n	8c66 <_malloc_r+0x1ae>
    8bf4:	4218      	tst	r0, r3
    8bf6:	d105      	bne.n	8c04 <_malloc_r+0x14c>
    8bf8:	f024 0403 	bic.w	r4, r4, #3
    8bfc:	0040      	lsls	r0, r0, #1
    8bfe:	3404      	adds	r4, #4
    8c00:	4218      	tst	r0, r3
    8c02:	d0fb      	beq.n	8bfc <_malloc_r+0x144>
    8c04:	eb07 09c4 	add.w	r9, r7, r4, lsl #3
    8c08:	46a0      	mov	r8, r4
    8c0a:	46ce      	mov	lr, r9
    8c0c:	f8de 300c 	ldr.w	r3, [lr, #12]
    8c10:	459e      	cmp	lr, r3
    8c12:	d107      	bne.n	8c24 <_malloc_r+0x16c>
    8c14:	e13c      	b.n	8e90 <_malloc_r+0x3d8>
    8c16:	2a00      	cmp	r2, #0
    8c18:	f280 8143 	bge.w	8ea2 <_malloc_r+0x3ea>
    8c1c:	68db      	ldr	r3, [r3, #12]
    8c1e:	459e      	cmp	lr, r3
    8c20:	f000 8136 	beq.w	8e90 <_malloc_r+0x3d8>
    8c24:	6859      	ldr	r1, [r3, #4]
    8c26:	f021 0103 	bic.w	r1, r1, #3
    8c2a:	1b4a      	subs	r2, r1, r5
    8c2c:	2a0f      	cmp	r2, #15
    8c2e:	ddf2      	ble.n	8c16 <_malloc_r+0x15e>
    8c30:	68dc      	ldr	r4, [r3, #12]
    8c32:	eb03 0e05 	add.w	lr, r3, r5
    8c36:	f8d3 8008 	ldr.w	r8, [r3, #8]
    8c3a:	f045 0501 	orr.w	r5, r5, #1
    8c3e:	4630      	mov	r0, r6
    8c40:	605d      	str	r5, [r3, #4]
    8c42:	f042 0501 	orr.w	r5, r2, #1
    8c46:	f8c8 400c 	str.w	r4, [r8, #12]
    8c4a:	f8c4 8008 	str.w	r8, [r4, #8]
    8c4e:	f103 0408 	add.w	r4, r3, #8
    8c52:	e9c7 ee04 	strd	lr, lr, [r7, #16]
    8c56:	e9ce cc02 	strd	ip, ip, [lr, #8]
    8c5a:	f8ce 5004 	str.w	r5, [lr, #4]
    8c5e:	505a      	str	r2, [r3, r1]
    8c60:	f000 f9f0 	bl	9044 <__malloc_unlock>
    8c64:	e754      	b.n	8b10 <_malloc_r+0x58>
    8c66:	68bc      	ldr	r4, [r7, #8]
    8c68:	6863      	ldr	r3, [r4, #4]
    8c6a:	f023 0903 	bic.w	r9, r3, #3
    8c6e:	45a9      	cmp	r9, r5
    8c70:	eba9 0305 	sub.w	r3, r9, r5
    8c74:	bf2c      	ite	cs
    8c76:	2200      	movcs	r2, #0
    8c78:	2201      	movcc	r2, #1
    8c7a:	2b0f      	cmp	r3, #15
    8c7c:	bfd8      	it	le
    8c7e:	f042 0201 	orrle.w	r2, r2, #1
    8c82:	2a00      	cmp	r2, #0
    8c84:	f000 80d2 	beq.w	8e2c <_malloc_r+0x374>
    8c88:	f649 1334 	movw	r3, #39220	; 0x9934
    8c8c:	f649 0af0 	movw	sl, #39152	; 0x98f0
    8c90:	f2c0 0301 	movt	r3, #1
    8c94:	f2c0 0a01 	movt	sl, #1
    8c98:	4630      	mov	r0, r6
    8c9a:	681a      	ldr	r2, [r3, #0]
    8c9c:	f8da 3000 	ldr.w	r3, [sl]
    8ca0:	eb05 0802 	add.w	r8, r5, r2
    8ca4:	3301      	adds	r3, #1
    8ca6:	bf17      	itett	ne
    8ca8:	f508 5880 	addne.w	r8, r8, #4096	; 0x1000
    8cac:	f108 0810 	addeq.w	r8, r8, #16
    8cb0:	f108 080f 	addne.w	r8, r8, #15
    8cb4:	f428 687f 	bicne.w	r8, r8, #4080	; 0xff0
    8cb8:	bf18      	it	ne
    8cba:	f028 080f 	bicne.w	r8, r8, #15
    8cbe:	4641      	mov	r1, r8
    8cc0:	f000 f9c6 	bl	9050 <_sbrk_r>
    8cc4:	f1b0 3fff 	cmp.w	r0, #4294967295	; 0xffffffff
    8cc8:	4683      	mov	fp, r0
    8cca:	f000 8128 	beq.w	8f1e <_malloc_r+0x466>
    8cce:	eb04 0009 	add.w	r0, r4, r9
    8cd2:	4558      	cmp	r0, fp
    8cd4:	f200 8121 	bhi.w	8f1a <_malloc_r+0x462>
    8cd8:	f649 1204 	movw	r2, #39172	; 0x9904
    8cdc:	f2c0 0201 	movt	r2, #1
    8ce0:	6813      	ldr	r3, [r2, #0]
    8ce2:	4443      	add	r3, r8
    8ce4:	6013      	str	r3, [r2, #0]
    8ce6:	f000 815d 	beq.w	8fa4 <_malloc_r+0x4ec>
    8cea:	f8da 1000 	ldr.w	r1, [sl]
    8cee:	9201      	str	r2, [sp, #4]
    8cf0:	3101      	adds	r1, #1
    8cf2:	bf0f      	iteee	eq
    8cf4:	f8ca b000 	streq.w	fp, [sl]
    8cf8:	ebab 0000 	subne.w	r0, fp, r0
    8cfc:	181b      	addne	r3, r3, r0
    8cfe:	6013      	strne	r3, [r2, #0]
    8d00:	f01b 0307 	ands.w	r3, fp, #7
    8d04:	4630      	mov	r0, r6
    8d06:	bf1f      	itttt	ne
    8d08:	f1c3 0108 	rsbne	r1, r3, #8
    8d0c:	f5c3 5380 	rsbne	r3, r3, #4096	; 0x1000
    8d10:	448b      	addne	fp, r1
    8d12:	3308      	addne	r3, #8
    8d14:	44d8      	add	r8, fp
    8d16:	bf08      	it	eq
    8d18:	f44f 5380 	moveq.w	r3, #4096	; 0x1000
    8d1c:	f3c8 080b 	ubfx	r8, r8, #0, #12
    8d20:	eba3 0808 	sub.w	r8, r3, r8
    8d24:	4641      	mov	r1, r8
    8d26:	f000 f993 	bl	9050 <_sbrk_r>
    8d2a:	9a01      	ldr	r2, [sp, #4]
    8d2c:	f8c7 b008 	str.w	fp, [r7, #8]
    8d30:	1c43      	adds	r3, r0, #1
    8d32:	6813      	ldr	r3, [r2, #0]
    8d34:	bf1b      	ittet	ne
    8d36:	eba0 010b 	subne.w	r1, r0, fp
    8d3a:	4441      	addne	r1, r8
    8d3c:	2101      	moveq	r1, #1
    8d3e:	f041 0101 	orrne.w	r1, r1, #1
    8d42:	bf08      	it	eq
    8d44:	f04f 0800 	moveq.w	r8, #0
    8d48:	42bc      	cmp	r4, r7
    8d4a:	4443      	add	r3, r8
    8d4c:	f8cb 1004 	str.w	r1, [fp, #4]
    8d50:	6013      	str	r3, [r2, #0]
    8d52:	d019      	beq.n	8d88 <_malloc_r+0x2d0>
    8d54:	f1b9 0f0f 	cmp.w	r9, #15
    8d58:	bf9c      	itt	ls
    8d5a:	2301      	movls	r3, #1
    8d5c:	f8cb 3004 	strls.w	r3, [fp, #4]
    8d60:	d931      	bls.n	8dc6 <_malloc_r+0x30e>
    8d62:	f1a9 010c 	sub.w	r1, r9, #12
    8d66:	6860      	ldr	r0, [r4, #4]
    8d68:	f021 0107 	bic.w	r1, r1, #7
    8d6c:	f04f 0e05 	mov.w	lr, #5
    8d70:	eb04 0c01 	add.w	ip, r4, r1
    8d74:	290f      	cmp	r1, #15
    8d76:	f000 0001 	and.w	r0, r0, #1
    8d7a:	ea40 0001 	orr.w	r0, r0, r1
    8d7e:	6060      	str	r0, [r4, #4]
    8d80:	e9cc ee01 	strd	lr, lr, [ip, #4]
    8d84:	f200 813c 	bhi.w	9000 <_malloc_r+0x548>
    8d88:	f649 122c 	movw	r2, #39212	; 0x992c
    8d8c:	f2c0 0201 	movt	r2, #1
    8d90:	68bc      	ldr	r4, [r7, #8]
    8d92:	f649 1030 	movw	r0, #39216	; 0x9930
    8d96:	6811      	ldr	r1, [r2, #0]
    8d98:	f2c0 0001 	movt	r0, #1
    8d9c:	428b      	cmp	r3, r1
    8d9e:	bf88      	it	hi
    8da0:	6013      	strhi	r3, [r2, #0]
    8da2:	6862      	ldr	r2, [r4, #4]
    8da4:	6801      	ldr	r1, [r0, #0]
    8da6:	f022 0203 	bic.w	r2, r2, #3
    8daa:	428b      	cmp	r3, r1
    8dac:	bf88      	it	hi
    8dae:	6003      	strhi	r3, [r0, #0]
    8db0:	4295      	cmp	r5, r2
    8db2:	eba2 0305 	sub.w	r3, r2, r5
    8db6:	bf94      	ite	ls
    8db8:	2200      	movls	r2, #0
    8dba:	2201      	movhi	r2, #1
    8dbc:	2b0f      	cmp	r3, #15
    8dbe:	bfd8      	it	le
    8dc0:	f042 0201 	orrle.w	r2, r2, #1
    8dc4:	b392      	cbz	r2, 8e2c <_malloc_r+0x374>
    8dc6:	4630      	mov	r0, r6
    8dc8:	2400      	movs	r4, #0
    8dca:	f000 f93b 	bl	9044 <__malloc_unlock>
    8dce:	e69f      	b.n	8b10 <_malloc_r+0x58>
    8dd0:	4413      	add	r3, r2
    8dd2:	f102 0408 	add.w	r4, r2, #8
    8dd6:	4630      	mov	r0, r6
    8dd8:	685a      	ldr	r2, [r3, #4]
    8dda:	f042 0201 	orr.w	r2, r2, #1
    8dde:	605a      	str	r2, [r3, #4]
    8de0:	f000 f930 	bl	9044 <__malloc_unlock>
    8de4:	4620      	mov	r0, r4
    8de6:	b003      	add	sp, #12
    8de8:	e8bd 8ff0 	ldmia.w	sp!, {r4, r5, r6, r7, r8, r9, sl, fp, pc}
    8dec:	09ab      	lsrs	r3, r5, #6
    8dee:	f103 0439 	add.w	r4, r3, #57	; 0x39
    8df2:	f103 0c38 	add.w	ip, r3, #56	; 0x38
    8df6:	00e3      	lsls	r3, r4, #3
    8df8:	e6b1      	b.n	8b5e <_malloc_r+0xa6>
    8dfa:	2400      	movs	r4, #0
    8dfc:	230c      	movs	r3, #12
    8dfe:	4620      	mov	r0, r4
    8e00:	6033      	str	r3, [r6, #0]
    8e02:	b003      	add	sp, #12
    8e04:	e8bd 8ff0 	ldmia.w	sp!, {r4, r5, r6, r7, r8, r9, sl, fp, pc}
    8e08:	441a      	add	r2, r3
    8e0a:	e9d3 7502 	ldrd	r7, r5, [r3, #8]
    8e0e:	4630      	mov	r0, r6
    8e10:	f103 0408 	add.w	r4, r3, #8
    8e14:	6851      	ldr	r1, [r2, #4]
    8e16:	60fd      	str	r5, [r7, #12]
    8e18:	f041 0101 	orr.w	r1, r1, #1
    8e1c:	60af      	str	r7, [r5, #8]
    8e1e:	6051      	str	r1, [r2, #4]
    8e20:	f000 f910 	bl	9044 <__malloc_unlock>
    8e24:	4620      	mov	r0, r4
    8e26:	b003      	add	sp, #12
    8e28:	e8bd 8ff0 	ldmia.w	sp!, {r4, r5, r6, r7, r8, r9, sl, fp, pc}
    8e2c:	1962      	adds	r2, r4, r5
    8e2e:	f043 0301 	orr.w	r3, r3, #1
    8e32:	4630      	mov	r0, r6
    8e34:	f045 0501 	orr.w	r5, r5, #1
    8e38:	6065      	str	r5, [r4, #4]
    8e3a:	3408      	adds	r4, #8
    8e3c:	60ba      	str	r2, [r7, #8]
    8e3e:	6053      	str	r3, [r2, #4]
    8e40:	f000 f900 	bl	9044 <__malloc_unlock>
    8e44:	4620      	mov	r0, r4
    8e46:	b003      	add	sp, #12
    8e48:	e8bd 8ff0 	ldmia.w	sp!, {r4, r5, r6, r7, r8, r9, sl, fp, pc}
    8e4c:	68d3      	ldr	r3, [r2, #12]
    8e4e:	429a      	cmp	r2, r3
    8e50:	bf08      	it	eq
    8e52:	3402      	addeq	r4, #2
    8e54:	f43f ae9b 	beq.w	8b8e <_malloc_r+0xd6>
    8e58:	e649      	b.n	8aee <_malloc_r+0x36>
    8e5a:	eb02 0e05 	add.w	lr, r2, r5
    8e5e:	4630      	mov	r0, r6
    8e60:	f045 0501 	orr.w	r5, r5, #1
    8e64:	6055      	str	r5, [r2, #4]
    8e66:	e9c7 ee04 	strd	lr, lr, [r7, #16]
    8e6a:	f041 0501 	orr.w	r5, r1, #1
    8e6e:	e9ce cc02 	strd	ip, ip, [lr, #8]
    8e72:	f102 0408 	add.w	r4, r2, #8
    8e76:	f8ce 5004 	str.w	r5, [lr, #4]
    8e7a:	50d1      	str	r1, [r2, r3]
    8e7c:	f000 f8e2 	bl	9044 <__malloc_unlock>
    8e80:	4620      	mov	r0, r4
    8e82:	b003      	add	sp, #12
    8e84:	e8bd 8ff0 	ldmia.w	sp!, {r4, r5, r6, r7, r8, r9, sl, fp, pc}
    8e88:	08ec      	lsrs	r4, r5, #3
    8e8a:	f105 0208 	add.w	r2, r5, #8
    8e8e:	e623      	b.n	8ad8 <_malloc_r+0x20>
    8e90:	f108 0801 	add.w	r8, r8, #1
    8e94:	f10e 0e08 	add.w	lr, lr, #8
    8e98:	f018 0f03 	tst.w	r8, #3
    8e9c:	f47f aeb6 	bne.w	8c0c <_malloc_r+0x154>
    8ea0:	e053      	b.n	8f4a <_malloc_r+0x492>
    8ea2:	4419      	add	r1, r3
    8ea4:	461c      	mov	r4, r3
    8ea6:	68da      	ldr	r2, [r3, #12]
    8ea8:	4630      	mov	r0, r6
    8eaa:	f854 5f08 	ldr.w	r5, [r4, #8]!
    8eae:	684b      	ldr	r3, [r1, #4]
    8eb0:	f043 0301 	orr.w	r3, r3, #1
    8eb4:	604b      	str	r3, [r1, #4]
    8eb6:	60ea      	str	r2, [r5, #12]
    8eb8:	6095      	str	r5, [r2, #8]
    8eba:	f000 f8c3 	bl	9044 <__malloc_unlock>
    8ebe:	e627      	b.n	8b10 <_malloc_r+0x58>
    8ec0:	0a59      	lsrs	r1, r3, #9
    8ec2:	2904      	cmp	r1, #4
    8ec4:	d930      	bls.n	8f28 <_malloc_r+0x470>
    8ec6:	2914      	cmp	r1, #20
    8ec8:	d864      	bhi.n	8f94 <_malloc_r+0x4dc>
    8eca:	f101 005c 	add.w	r0, r1, #92	; 0x5c
    8ece:	315b      	adds	r1, #91	; 0x5b
    8ed0:	00c0      	lsls	r0, r0, #3
    8ed2:	eb07 0e00 	add.w	lr, r7, r0
    8ed6:	5838      	ldr	r0, [r7, r0]
    8ed8:	f1ae 0e08 	sub.w	lr, lr, #8
    8edc:	4586      	cmp	lr, r0
    8ede:	d050      	beq.n	8f82 <_malloc_r+0x4ca>
    8ee0:	6841      	ldr	r1, [r0, #4]
    8ee2:	f021 0103 	bic.w	r1, r1, #3
    8ee6:	4299      	cmp	r1, r3
    8ee8:	d902      	bls.n	8ef0 <_malloc_r+0x438>
    8eea:	6880      	ldr	r0, [r0, #8]
    8eec:	4586      	cmp	lr, r0
    8eee:	d1f7      	bne.n	8ee0 <_malloc_r+0x428>
    8ef0:	f8d0 e00c 	ldr.w	lr, [r0, #12]
    8ef4:	687b      	ldr	r3, [r7, #4]
    8ef6:	e9c2 0e02 	strd	r0, lr, [r2, #8]
    8efa:	f8ce 2008 	str.w	r2, [lr, #8]
    8efe:	60c2      	str	r2, [r0, #12]
    8f00:	e673      	b.n	8bea <_malloc_r+0x132>
    8f02:	2b54      	cmp	r3, #84	; 0x54
    8f04:	d916      	bls.n	8f34 <_malloc_r+0x47c>
    8f06:	f5b3 7faa 	cmp.w	r3, #340	; 0x154
    8f0a:	d857      	bhi.n	8fbc <_malloc_r+0x504>
    8f0c:	0beb      	lsrs	r3, r5, #15
    8f0e:	f103 0478 	add.w	r4, r3, #120	; 0x78
    8f12:	f103 0c77 	add.w	ip, r3, #119	; 0x77
    8f16:	00e3      	lsls	r3, r4, #3
    8f18:	e621      	b.n	8b5e <_malloc_r+0xa6>
    8f1a:	42bc      	cmp	r4, r7
    8f1c:	d059      	beq.n	8fd2 <_malloc_r+0x51a>
    8f1e:	68bc      	ldr	r4, [r7, #8]
    8f20:	6862      	ldr	r2, [r4, #4]
    8f22:	f022 0203 	bic.w	r2, r2, #3
    8f26:	e743      	b.n	8db0 <_malloc_r+0x2f8>
    8f28:	0999      	lsrs	r1, r3, #6
    8f2a:	f101 0039 	add.w	r0, r1, #57	; 0x39
    8f2e:	3138      	adds	r1, #56	; 0x38
    8f30:	00c0      	lsls	r0, r0, #3
    8f32:	e7ce      	b.n	8ed2 <_malloc_r+0x41a>
    8f34:	0b2b      	lsrs	r3, r5, #12
    8f36:	f103 046f 	add.w	r4, r3, #111	; 0x6f
    8f3a:	f103 0c6e 	add.w	ip, r3, #110	; 0x6e
    8f3e:	00e3      	lsls	r3, r4, #3
    8f40:	e60d      	b.n	8b5e <_malloc_r+0xa6>
    8f42:	f8d9 9000 	ldr.w	r9, [r9]
    8f46:	4599      	cmp	r9, r3
    8f48:	d171      	bne.n	902e <_malloc_r+0x576>
    8f4a:	f014 0f03 	tst.w	r4, #3
    8f4e:	f1a9 0308 	sub.w	r3, r9, #8
    8f52:	f104 34ff 	add.w	r4, r4, #4294967295	; 0xffffffff
    8f56:	d1f4      	bne.n	8f42 <_malloc_r+0x48a>
    8f58:	687b      	ldr	r3, [r7, #4]
    8f5a:	ea23 0300 	bic.w	r3, r3, r0
    8f5e:	607b      	str	r3, [r7, #4]
    8f60:	0040      	lsls	r0, r0, #1
    8f62:	4298      	cmp	r0, r3
    8f64:	bf8c      	ite	hi
    8f66:	2200      	movhi	r2, #0
    8f68:	2201      	movls	r2, #1
    8f6a:	2800      	cmp	r0, #0
    8f6c:	bf08      	it	eq
    8f6e:	2200      	moveq	r2, #0
    8f70:	b91a      	cbnz	r2, 8f7a <_malloc_r+0x4c2>
    8f72:	e678      	b.n	8c66 <_malloc_r+0x1ae>
    8f74:	0040      	lsls	r0, r0, #1
    8f76:	f108 0804 	add.w	r8, r8, #4
    8f7a:	4218      	tst	r0, r3
    8f7c:	d0fa      	beq.n	8f74 <_malloc_r+0x4bc>
    8f7e:	4644      	mov	r4, r8
    8f80:	e640      	b.n	8c04 <_malloc_r+0x14c>
    8f82:	687b      	ldr	r3, [r7, #4]
    8f84:	1089      	asrs	r1, r1, #2
    8f86:	f04f 0801 	mov.w	r8, #1
    8f8a:	fa08 f101 	lsl.w	r1, r8, r1
    8f8e:	430b      	orrs	r3, r1
    8f90:	607b      	str	r3, [r7, #4]
    8f92:	e7b0      	b.n	8ef6 <_malloc_r+0x43e>
    8f94:	2954      	cmp	r1, #84	; 0x54
    8f96:	d824      	bhi.n	8fe2 <_malloc_r+0x52a>
    8f98:	0b19      	lsrs	r1, r3, #12
    8f9a:	f101 006f 	add.w	r0, r1, #111	; 0x6f
    8f9e:	316e      	adds	r1, #110	; 0x6e
    8fa0:	00c0      	lsls	r0, r0, #3
    8fa2:	e796      	b.n	8ed2 <_malloc_r+0x41a>
    8fa4:	f3c0 010b 	ubfx	r1, r0, #0, #12
    8fa8:	2900      	cmp	r1, #0
    8faa:	f47f ae9e 	bne.w	8cea <_malloc_r+0x232>
    8fae:	68b9      	ldr	r1, [r7, #8]
    8fb0:	eb09 0208 	add.w	r2, r9, r8
    8fb4:	f042 0201 	orr.w	r2, r2, #1
    8fb8:	604a      	str	r2, [r1, #4]
    8fba:	e6e5      	b.n	8d88 <_malloc_r+0x2d0>
    8fbc:	f240 5254 	movw	r2, #1364	; 0x554
    8fc0:	4293      	cmp	r3, r2
    8fc2:	d817      	bhi.n	8ff4 <_malloc_r+0x53c>
    8fc4:	0cab      	lsrs	r3, r5, #18
    8fc6:	f103 047d 	add.w	r4, r3, #125	; 0x7d
    8fca:	f103 0c7c 	add.w	ip, r3, #124	; 0x7c
    8fce:	00e3      	lsls	r3, r4, #3
    8fd0:	e5c5      	b.n	8b5e <_malloc_r+0xa6>
    8fd2:	f649 1204 	movw	r2, #39172	; 0x9904
    8fd6:	f2c0 0201 	movt	r2, #1
    8fda:	6813      	ldr	r3, [r2, #0]
    8fdc:	4443      	add	r3, r8
    8fde:	6013      	str	r3, [r2, #0]
    8fe0:	e683      	b.n	8cea <_malloc_r+0x232>
    8fe2:	f5b1 7faa 	cmp.w	r1, #340	; 0x154
    8fe6:	d814      	bhi.n	9012 <_malloc_r+0x55a>
    8fe8:	0bd9      	lsrs	r1, r3, #15
    8fea:	f101 0078 	add.w	r0, r1, #120	; 0x78
    8fee:	3177      	adds	r1, #119	; 0x77
    8ff0:	00c0      	lsls	r0, r0, #3
    8ff2:	e76e      	b.n	8ed2 <_malloc_r+0x41a>
    8ff4:	f44f 737e 	mov.w	r3, #1016	; 0x3f8
    8ff8:	247f      	movs	r4, #127	; 0x7f
    8ffa:	f04f 0c7e 	mov.w	ip, #126	; 0x7e
    8ffe:	e5ae      	b.n	8b5e <_malloc_r+0xa6>
    9000:	f104 0108 	add.w	r1, r4, #8
    9004:	4630      	mov	r0, r6
    9006:	9201      	str	r2, [sp, #4]
    9008:	f7ff fc60 	bl	88cc <_free_r>
    900c:	9a01      	ldr	r2, [sp, #4]
    900e:	6813      	ldr	r3, [r2, #0]
    9010:	e6ba      	b.n	8d88 <_malloc_r+0x2d0>
    9012:	f240 5054 	movw	r0, #1364	; 0x554
    9016:	4281      	cmp	r1, r0
    9018:	bf9b      	ittet	ls
    901a:	0c99      	lsrls	r1, r3, #18
    901c:	f101 007d 	addls.w	r0, r1, #125	; 0x7d
    9020:	f44f 707e 	movhi.w	r0, #1016	; 0x3f8
    9024:	317c      	addls	r1, #124	; 0x7c
    9026:	bf8c      	ite	hi
    9028:	217e      	movhi	r1, #126	; 0x7e
    902a:	00c0      	lslls	r0, r0, #3
    902c:	e751      	b.n	8ed2 <_malloc_r+0x41a>
    902e:	687b      	ldr	r3, [r7, #4]
    9030:	e796      	b.n	8f60 <_malloc_r+0x4a8>
    9032:	bf00      	nop
    9034:	000194f0 	strdeq	r9, [r1], -r0

00009038 <__malloc_lock>:
__malloc_lock():
    9038:	f649 104c 	movw	r0, #39244	; 0x994c
    903c:	f2c0 0001 	movt	r0, #1
    9040:	f000 b824 	b.w	908c <__retarget_lock_acquire_recursive>

00009044 <__malloc_unlock>:
__malloc_unlock():
    9044:	f649 104c 	movw	r0, #39244	; 0x994c
    9048:	f2c0 0001 	movt	r0, #1
    904c:	f000 b826 	b.w	909c <__retarget_lock_release_recursive>

00009050 <_sbrk_r>:
_sbrk_r():
    9050:	b538      	push	{r3, r4, r5, lr}
    9052:	f649 1438 	movw	r4, #39224	; 0x9938
    9056:	f2c0 0401 	movt	r4, #1
    905a:	4605      	mov	r5, r0
    905c:	4608      	mov	r0, r1
    905e:	2300      	movs	r3, #0
    9060:	6023      	str	r3, [r4, #0]
    9062:	f7ff e98a 	blx	8378 <_sbrk>
    9066:	1c43      	adds	r3, r0, #1
    9068:	d000      	beq.n	906c <_sbrk_r+0x1c>
    906a:	bd38      	pop	{r3, r4, r5, pc}
    906c:	6823      	ldr	r3, [r4, #0]
    906e:	2b00      	cmp	r3, #0
    9070:	d0fb      	beq.n	906a <_sbrk_r+0x1a>
    9072:	602b      	str	r3, [r5, #0]
    9074:	bd38      	pop	{r3, r4, r5, pc}
    9076:	bf00      	nop

00009078 <__retarget_lock_init>:
__retarget_lock_init():
    9078:	4770      	bx	lr
    907a:	bf00      	nop

0000907c <__retarget_lock_init_recursive>:
__retarget_lock_init_recursive():
    907c:	4770      	bx	lr
    907e:	bf00      	nop

00009080 <__retarget_lock_close>:
__retarget_lock_close():
    9080:	4770      	bx	lr
    9082:	bf00      	nop

00009084 <__retarget_lock_close_recursive>:
__retarget_lock_close_recursive():
    9084:	4770      	bx	lr
    9086:	bf00      	nop

00009088 <__retarget_lock_acquire>:
__retarget_lock_acquire():
    9088:	4770      	bx	lr
    908a:	bf00      	nop

0000908c <__retarget_lock_acquire_recursive>:
__retarget_lock_acquire_recursive():
    908c:	4770      	bx	lr
    908e:	bf00      	nop

00009090 <__retarget_lock_try_acquire>:
__retarget_lock_try_acquire():
    9090:	2001      	movs	r0, #1
    9092:	4770      	bx	lr

00009094 <__retarget_lock_try_acquire_recursive>:
__retarget_lock_try_acquire_recursive():
    9094:	2001      	movs	r0, #1
    9096:	4770      	bx	lr

00009098 <__retarget_lock_release>:
__retarget_lock_release():
    9098:	4770      	bx	lr
    909a:	bf00      	nop

0000909c <__retarget_lock_release_recursive>:
__retarget_lock_release_recursive():
    909c:	4770      	bx	lr
    909e:	bf00      	nop
